
========================================================================

** ELF Header Information

    File Name: .\obj\Touchscreen_Driver.axf

    Machine class: ELFCLASS32 (32-bit)
    Data encoding: ELFDATA2LSB (Little endian)
    Header version: EV_CURRENT (Current version)
    Operating System ABI: none
    ABI Version: 0
    File Type: ET_EXEC (Executable) (2)
    Machine: EM_ARM (ARM)

    Image Entry point: 0x00000155
    Flags: EF_ARM_HASENTRY (0x05000002)

    ARM ELF revision: 5 (ABI version 2)

    Conforms to Base float procedure-call standard

    Built with
    Component: Arm Compiler for Embedded 6.24 Tool: armasm [5f371400]
    Component: Arm Compiler for Embedded 6.24 Tool: armlink [5f371500]

    Header size: 52 bytes (0x34)
    Program header entry size: 32 bytes (0x20)
    Section header entry size: 40 bytes (0x28)

    Program header entries: 1
    Section header entries: 15

    Program header offset: 80624 (0x00013af0)
    Section header offset: 80656 (0x00013b10)

    Section header string table index: 14

========================================================================

** Program header #0 (PT_LOAD) [PF_X + PF_W + PF_R + PF_ARM_ENTRY]
    Size : 18952 bytes (16216 bytes in file)
    Virtual address: 0x00000000 (Alignment 8)


========================================================================

** Section #1 'ER_RO' (SHT_PROGBITS) [SHF_ALLOC + SHF_EXECINSTR]
    Size   : 16096 bytes (alignment 4)
    Address: 0x00000000

    $d.realdata
    RESET
    __Vectors
        0x00000000:    20000b28    (..     DCD    536873768
        0x00000004:    00000155    U...    DCD    341
        0x00000008:    00000187    ....    DCD    391
        0x0000000c:    00000189    ....    DCD    393
        0x00000010:    00000199    ....    DCD    409
        0x00000014:    0000019b    ....    DCD    411
        0x00000018:    0000019d    ....    DCD    413
        0x0000001c:    00000000    ....    DCD    0
        0x00000020:    00000000    ....    DCD    0
        0x00000024:    00000000    ....    DCD    0
        0x00000028:    00000000    ....    DCD    0
        0x0000002c:    0000019f    ....    DCD    415
        0x00000030:    000001a1    ....    DCD    417
        0x00000034:    00000000    ....    DCD    0
        0x00000038:    000001a3    ....    DCD    419
        0x0000003c:    000001a5    ....    DCD    421
        0x00000040:    000001a7    ....    DCD    423
        0x00000044:    000001a7    ....    DCD    423
        0x00000048:    000001a7    ....    DCD    423
        0x0000004c:    000001a7    ....    DCD    423
        0x00000050:    000001a7    ....    DCD    423
        0x00000054:    000001a7    ....    DCD    423
        0x00000058:    000001a7    ....    DCD    423
        0x0000005c:    000001a7    ....    DCD    423
        0x00000060:    000021ed    .!..    DCD    8685
        0x00000064:    000001a7    ....    DCD    423
        0x00000068:    000001a7    ....    DCD    423
        0x0000006c:    000001a7    ....    DCD    423
        0x00000070:    000001a7    ....    DCD    423
        0x00000074:    000001a7    ....    DCD    423
        0x00000078:    000001a7    ....    DCD    423
        0x0000007c:    00000f35    5...    DCD    3893
        0x00000080:    000001a7    ....    DCD    423
        0x00000084:    000001a7    ....    DCD    423
        0x00000088:    000001a7    ....    DCD    423
        0x0000008c:    000001a7    ....    DCD    423
        0x00000090:    000001a7    ....    DCD    423
        0x00000094:    000001a7    ....    DCD    423
        0x00000098:    000001a7    ....    DCD    423
        0x0000009c:    000001a7    ....    DCD    423
        0x000000a0:    000001a7    ....    DCD    423
        0x000000a4:    000001a7    ....    DCD    423
        0x000000a8:    000001a7    ....    DCD    423
        0x000000ac:    000001a7    ....    DCD    423
        0x000000b0:    000001a7    ....    DCD    423
        0x000000b4:    000001a7    ....    DCD    423
        0x000000b8:    000001a7    ....    DCD    423
        0x000000bc:    000001a7    ....    DCD    423
        0x000000c0:    00001c0d    ....    DCD    7181
        0x000000c4:    000001a7    ....    DCD    423
        0x000000c8:    000001a7    ....    DCD    423
        0x000000cc:    000001a7    ....    DCD    423
        0x000000d0:    000001a7    ....    DCD    423
        0x000000d4:    00001c59    Y...    DCD    7257
        0x000000d8:    000001a7    ....    DCD    423
        0x000000dc:    000001a7    ....    DCD    423
        0x000000e0:    000001a7    ....    DCD    423
        0x000000e4:    000001a7    ....    DCD    423
        0x000000e8:    0000070d    ....    DCD    1805
        0x000000ec:    000001a7    ....    DCD    423
        0x000000f0:    000001a7    ....    DCD    423
        0x000000f4:    000001a7    ....    DCD    423
        0x000000f8:    000001a7    ....    DCD    423
        0x000000fc:    000001a7    ....    DCD    423
        0x00000100:    000001a7    ....    DCD    423
        0x00000104:    000001a7    ....    DCD    423
        0x00000108:    000001a7    ....    DCD    423
        0x0000010c:    000001a7    ....    DCD    423
        0x00000110:    000001a7    ....    DCD    423
        0x00000114:    000001a7    ....    DCD    423
        0x00000118:    000001a7    ....    DCD    423
        0x0000011c:    000001a7    ....    DCD    423
        0x00000120:    000001a7    ....    DCD    423
        0x00000124:    000001a7    ....    DCD    423
        0x00000128:    000001a7    ....    DCD    423
        0x0000012c:    000001a7    ....    DCD    423
        0x00000130:    000001a7    ....    DCD    423
        0x00000134:    000001a7    ....    DCD    423
        0x00000138:    000001a7    ....    DCD    423
        0x0000013c:    000001a7    ....    DCD    423
    $t
    .ARM.Collect$$$$00000000
    .ARM.Collect$$$$00000001
    __Vectors_End
    __main
    _main_stk
        0x00000140:    f8dfd00c    ....    LDR      sp,__lit__00000000 ; [0x150] = 0x20000b28
    .ARM.Collect$$$$00000004
    _main_scatterload
        0x00000144:    f000fa3c    ..<.    BL       __scatterload ; 0x5c0
    .ARM.Collect$$$$00000008
    .ARM.Collect$$$$0000000A
    .ARM.Collect$$$$0000000B
    __main_after_scatterload
    _main_clock
    _main_cpp_init
    _main_init
        0x00000148:    4800        .H      LDR      r0,[pc,#0] ; [0x14c] = 0x2685
        0x0000014a:    4700        .G      BX       r0
    $d
        0x0000014c:    00002685    .&..    DCD    9861
    .ARM.Collect$$$$00002712
    __lit__00000000
    .ARM.Collect$$$$0000000D
    .ARM.Collect$$$$0000000F
    __rt_final_cpp
    __rt_final_exit
        0x00000150:    20000b28    (..     DCD    536873768
    $t
    .text
    $v0
    Reset_Handler
        0x00000154:    4814        .H      LDR      r0,[pc,#80] ; [0x1a8] = 0x40000100
        0x00000156:    f04f0159    O.Y.    MOV      r1,#0x59
        0x0000015a:    6001        .`      STR      r1,[r0,#0]
        0x0000015c:    f04f0116    O...    MOV      r1,#0x16
        0x00000160:    6001        .`      STR      r1,[r0,#0]
        0x00000162:    f04f0188    O...    MOV      r1,#0x88
        0x00000166:    6001        .`      STR      r1,[r0,#0]
        0x00000168:    4a10        .J      LDR      r2,[pc,#64] ; [0x1ac] = 0x40000024
        0x0000016a:    f64521a5    E..!    MOV      r1,#0x5aa5
        0x0000016e:    6011        .`      STR      r1,[r2,#0]
        0x00000170:    4a0f        .J      LDR      r2,[pc,#60] ; [0x1b0] = 0x40000200
        0x00000172:    6811        .h      LDR      r1,[r2,#0]
        0x00000174:    f4215180    !..Q    BIC      r1,r1,#0x1000
        0x00000178:    6011        .`      STR      r1,[r2,#0]
        0x0000017a:    2100        .!      MOVS     r1,#0
        0x0000017c:    6001        .`      STR      r1,[r0,#0]
        0x0000017e:    480d        .H      LDR      r0,[pc,#52] ; [0x1b4] = 0x1a01
        0x00000180:    4780        .G      BLX      r0
        0x00000182:    480d        .H      LDR      r0,[pc,#52] ; [0x1b8] = 0x141
        0x00000184:    4700        .G      BX       r0
    NMI_Handler
        0x00000186:    e7fe        ..      B        NMI_Handler ; 0x186
    HardFault_Handler
        0x00000188:    4670        pF      MOV      r0,lr
        0x0000018a:    f3ef8108    ....    MRS      r1,MSP
        0x0000018e:    f3ef8209    ....    MRS      r2,PSP
        0x00000192:    4b0a        .K      LDR      r3,[pc,#40] ; [0x1bc] = 0x13e1
        0x00000194:    4798        .G      BLX      r3
        0x00000196:    4700        .G      BX       r0
    MemManage_Handler
        0x00000198:    e7fe        ..      B        MemManage_Handler ; 0x198
    BusFault_Handler
        0x0000019a:    e7fe        ..      B        BusFault_Handler ; 0x19a
    UsageFault_Handler
        0x0000019c:    e7fe        ..      B        UsageFault_Handler ; 0x19c
    SVC_Handler
        0x0000019e:    e7fe        ..      B        SVC_Handler ; 0x19e
    DebugMon_Handler
        0x000001a0:    e7fe        ..      B        DebugMon_Handler ; 0x1a0
    PendSV_Handler
        0x000001a2:    e7fe        ..      B        PendSV_Handler ; 0x1a2
    SysTick_Handler
        0x000001a4:    e7fe        ..      B        SysTick_Handler ; 0x1a4
    Default_Handler
    ACMP01_IRQHandler
    ADC01_IRQHandler
    ADC02_IRQHandler
    ADC03_IRQHandler
    BOD_IRQHandler
    BRAKE0_IRQHandler
    BRAKE1_IRQHandler
    CAN0_IRQHandler
    CLKFAIL_IRQHandler
    DAC_IRQHandler
    EINT0_IRQHandler
    EINT1_IRQHandler
    EINT2_IRQHandler
    EINT3_IRQHandler
    EINT4_IRQHandler
    GPA_IRQHandler
    GPB_IRQHandler
    GPC_IRQHandler
    GPD_IRQHandler
    GPE_IRQHandler
    GPF_IRQHandler
    I2C0_IRQHandler
    I2C1_IRQHandler
    IRC_IRQHandler
    PDMA_IRQHandler
    PWM0P0_IRQHandler
    PWM0P1_IRQHandler
    PWM0P2_IRQHandler
    PWM1P0_IRQHandler
    PWM1P1_IRQHandler
    PWM1P2_IRQHandler
    PWRWU_IRQHandler
    RAMPE_IRQHandler
    RTC_IRQHandler
    SC0_IRQHandler
    SPI0_IRQHandler
    SPI1_IRQHandler
    SPI2_IRQHandler
    TAMPER_IRQHandler
    TK_IRQHandler
    TMR1_IRQHandler
    TMR2_IRQHandler
    TMR3_IRQHandler
    UART0_IRQHandler
    UART2_IRQHandler
    UART3_IRQHandler
    USBD_IRQHandler
    USBH_IRQHandler
    USBOTG_IRQHandler
    WWDT_IRQHandler
        0x000001a6:    e7fe        ..      B        Default_Handler ; 0x1a6
    $d
        0x000001a8:    40000100    ...@    DCD    1073742080
        0x000001ac:    40000024    $..@    DCD    1073741860
        0x000001b0:    40000200    ...@    DCD    1073742336
        0x000001b4:    00001a01    ....    DCD    6657
        0x000001b8:    00000141    A...    DCD    321
        0x000001bc:    000013e1    ....    DCD    5089
    $t
    .text
    __aeabi_uidiv
    __aeabi_uidivmod
        0x000001c0:    b530        0.      PUSH     {r4,r5,lr}
        0x000001c2:    460b        .F      MOV      r3,r1
        0x000001c4:    4601        .F      MOV      r1,r0
        0x000001c6:    2000        .       MOVS     r0,#0
        0x000001c8:    2220         "      MOVS     r2,#0x20
        0x000001ca:    2401        .$      MOVS     r4,#1
        0x000001cc:    e009        ..      B        0x1e2 ; __aeabi_uidiv + 34
        0x000001ce:    fa21f502    !...    LSR      r5,r1,r2
        0x000001d2:    429d        .B      CMP      r5,r3
        0x000001d4:    d305        ..      BCC      0x1e2 ; __aeabi_uidiv + 34
        0x000001d6:    fa03f502    ....    LSL      r5,r3,r2
        0x000001da:    1b49        I.      SUBS     r1,r1,r5
        0x000001dc:    fa04f502    ....    LSL      r5,r4,r2
        0x000001e0:    4428        (D      ADD      r0,r0,r5
        0x000001e2:    1e15        ..      SUBS     r5,r2,#0
        0x000001e4:    f1a20201    ....    SUB      r2,r2,#1
        0x000001e8:    dcf1        ..      BGT      0x1ce ; __aeabi_uidiv + 14
        0x000001ea:    bd30        0.      POP      {r4,r5,pc}
    .text
    __aeabi_uldivmod
        0x000001ec:    e92d5ff0    -.._    PUSH     {r4-r12,lr}
        0x000001f0:    4605        .F      MOV      r5,r0
        0x000001f2:    2000        .       MOVS     r0,#0
        0x000001f4:    4692        .F      MOV      r10,r2
        0x000001f6:    469b        .F      MOV      r11,r3
        0x000001f8:    4688        .F      MOV      r8,r1
        0x000001fa:    4606        .F      MOV      r6,r0
        0x000001fc:    4681        .F      MOV      r9,r0
        0x000001fe:    2440        @$      MOVS     r4,#0x40
        0x00000200:    e01b        ..      B        0x23a ; __aeabi_uldivmod + 78
        0x00000202:    4628        (F      MOV      r0,r5
        0x00000204:    4641        AF      MOV      r1,r8
        0x00000206:    4647        GF      MOV      r7,r8
        0x00000208:    4622        "F      MOV      r2,r4
        0x0000020a:    f000fa00    ....    BL       __aeabi_llsr ; 0x60e
        0x0000020e:    4653        SF      MOV      r3,r10
        0x00000210:    465a        ZF      MOV      r2,r11
        0x00000212:    1ac0        ..      SUBS     r0,r0,r3
        0x00000214:    4191        .A      SBCS     r1,r1,r2
        0x00000216:    d310        ..      BCC      0x23a ; __aeabi_uldivmod + 78
        0x00000218:    4611        .F      MOV      r1,r2
        0x0000021a:    4618        .F      MOV      r0,r3
        0x0000021c:    4622        "F      MOV      r2,r4
        0x0000021e:    f000f9e7    ....    BL       __aeabi_llsl ; 0x5f0
        0x00000222:    1a2d        -.      SUBS     r5,r5,r0
        0x00000224:    eb670801    g...    SBC      r8,r7,r1
        0x00000228:    464f        OF      MOV      r7,r9
        0x0000022a:    4622        "F      MOV      r2,r4
        0x0000022c:    2001        .       MOVS     r0,#1
        0x0000022e:    2100        .!      MOVS     r1,#0
        0x00000230:    f000f9de    ....    BL       __aeabi_llsl ; 0x5f0
        0x00000234:    eb170900    ....    ADDS     r9,r7,r0
        0x00000238:    414e        NA      ADCS     r6,r6,r1
        0x0000023a:    1e20         .      SUBS     r0,r4,#0
        0x0000023c:    f1a40401    ....    SUB      r4,r4,#1
        0x00000240:    dcdf        ..      BGT      0x202 ; __aeabi_uldivmod + 22
        0x00000242:    4648        HF      MOV      r0,r9
        0x00000244:    4631        1F      MOV      r1,r6
        0x00000246:    462a        *F      MOV      r2,r5
        0x00000248:    4643        CF      MOV      r3,r8
        0x0000024a:    e8bd9ff0    ....    POP      {r4-r12,pc}
    .text
    .text
    __I$use$fp
    __aeabi_dadd
        0x0000024e:    e92d4ffe    -..O    PUSH     {r1-r11,lr}
        0x00000252:    4680        .F      MOV      r8,r0
        0x00000254:    ea810003    ....    EOR      r0,r1,r3
        0x00000258:    0fc0        ..      LSRS     r0,r0,#31
        0x0000025a:    460c        .F      MOV      r4,r1
        0x0000025c:    9000        ..      STR      r0,[sp,#0]
        0x0000025e:    f0214100    !..A    BIC      r1,r1,#0x80000000
        0x00000262:    f0234500    #..E    BIC      r5,r3,#0x80000000
        0x00000266:    ebb80002    ....    SUBS     r0,r8,r2
        0x0000026a:    41a9        .A      SBCS     r1,r1,r5
        0x0000026c:    d205        ..      BCS      0x27a ; __I$use$fp + 44
        0x0000026e:    4640        @F      MOV      r0,r8
        0x00000270:    4621        !F      MOV      r1,r4
        0x00000272:    4690        .F      MOV      r8,r2
        0x00000274:    461c        .F      MOV      r4,r3
        0x00000276:    460b        .F      MOV      r3,r1
        0x00000278:    4602        .F      MOV      r2,r0
        0x0000027a:    f0234000    #..@    BIC      r0,r3,#0x80000000
        0x0000027e:    4310        .C      ORRS     r0,r0,r2
        0x00000280:    d047        G.      BEQ      0x312 ; __I$use$fp + 196
        0x00000282:    0d27        '.      LSRS     r7,r4,#20
        0x00000284:    f3c7000a    ....    UBFX     r0,r7,#0,#11
        0x00000288:    f3c3510a    ...Q    UBFX     r1,r3,#20,#11
        0x0000028c:    9002        ..      STR      r0,[sp,#8]
        0x0000028e:    1a40        @.      SUBS     r0,r0,r1
        0x00000290:    9001        ..      STR      r0,[sp,#4]
        0x00000292:    2840        @(      CMP      r0,#0x40
        0x00000294:    da6b        k.      BGE      0x36e ; __I$use$fp + 288
        0x00000296:    f3c30013    ....    UBFX     r0,r3,#0,#20
        0x0000029a:    f4401b80    @...    ORR      r11,r0,#0x100000
        0x0000029e:    9800        ..      LDR      r0,[sp,#0]
        0x000002a0:    4692        .F      MOV      r10,r2
        0x000002a2:    b120         .      CBZ      r0,0x2ae ; __I$use$fp + 96
        0x000002a4:    2300        .#      MOVS     r3,#0
        0x000002a6:    ebd20a03    ....    RSBS     r10,r2,r3
        0x000002aa:    eb630b0b    c...    SBC      r11,r3,r11
        0x000002ae:    9801        ..      LDR      r0,[sp,#4]
        0x000002b0:    4659        YF      MOV      r1,r11
        0x000002b2:    f1c00240    ..@.    RSB      r2,r0,#0x40
        0x000002b6:    4650        PF      MOV      r0,r10
        0x000002b8:    f000f99a    ....    BL       __aeabi_llsl ; 0x5f0
        0x000002bc:    4606        .F      MOV      r6,r0
        0x000002be:    460d        .F      MOV      r5,r1
        0x000002c0:    4650        PF      MOV      r0,r10
        0x000002c2:    4659        YF      MOV      r1,r11
        0x000002c4:    9a01        ..      LDR      r2,[sp,#4]
        0x000002c6:    f000f9b2    ....    BL       __aeabi_lasr ; 0x62e
        0x000002ca:    eb100008    ....    ADDS     r0,r0,r8
        0x000002ce:    4161        aA      ADCS     r1,r1,r4
        0x000002d0:    2400        .$      MOVS     r4,#0
        0x000002d2:    ea875211    ...R    EOR      r2,r7,r1,LSR #20
        0x000002d6:    ea8473e7    ...s    EOR      r3,r4,r7,ASR #31
        0x000002da:    431a        .C      ORRS     r2,r2,r3
        0x000002dc:    d040        @.      BEQ      0x360 ; __I$use$fp + 274
        0x000002de:    9a00        ..      LDR      r2,[sp,#0]
        0x000002e0:    b362        b.      CBZ      r2,0x33c ; __I$use$fp + 238
        0x000002e2:    9a01        ..      LDR      r2,[sp,#4]
        0x000002e4:    2a01        .*      CMP      r2,#1
        0x000002e6:    ea4f5207    O..R    LSL      r2,r7,#20
        0x000002ea:    dc15        ..      BGT      0x318 ; __I$use$fp + 202
        0x000002ec:    1b00        ..      SUBS     r0,r0,r4
        0x000002ee:    eb610102    a...    SBC      r1,r1,r2
        0x000002f2:    f04f4200    O..B    MOV      r2,#0x80000000
        0x000002f6:    ea025207    ...R    AND      r2,r2,r7,LSL #20
        0x000002fa:    e9cd4200    ...B    STRD     r4,r2,[sp,#0]
        0x000002fe:    1c00        ..      ADDS     r0,r0,#0
        0x00000300:    f5411180    A...    ADC      r1,r1,#0x100000
        0x00000304:    4632        2F      MOV      r2,r6
        0x00000306:    462b        +F      MOV      r3,r5
        0x00000308:    f000f9b2    ....    BL       _double_epilogue ; 0x670
        0x0000030c:    b003        ..      ADD      sp,sp,#0xc
        0x0000030e:    e8bd8ff0    ....    POP      {r4-r11,pc}
        0x00000312:    4640        @F      MOV      r0,r8
        0x00000314:    4621        !F      MOV      r1,r4
        0x00000316:    e7f9        ..      B        0x30c ; __I$use$fp + 190
        0x00000318:    1b00        ..      SUBS     r0,r0,r4
        0x0000031a:    eb610102    a...    SBC      r1,r1,r2
        0x0000031e:    1c00        ..      ADDS     r0,r0,#0
        0x00000320:    f5411380    A...    ADC      r3,r1,#0x100000
        0x00000324:    1800        ..      ADDS     r0,r0,r0
        0x00000326:    415b        [A      ADCS     r3,r3,r3
        0x00000328:    1820         .      ADDS     r0,r4,r0
        0x0000032a:    f5a21700    ....    SUB      r7,r2,#0x200000
        0x0000032e:    eb470103    G...    ADC      r1,r7,r3
        0x00000332:    ea4070d5    @..p    ORR      r0,r0,r5,LSR #31
        0x00000336:    19b6        ..      ADDS     r6,r6,r6
        0x00000338:    416d        mA      ADCS     r5,r5,r5
        0x0000033a:    e011        ..      B        0x360 ; __I$use$fp + 274
        0x0000033c:    086d        m.      LSRS     r5,r5,#1
        0x0000033e:    ea4f0636    O.6.    RRX      r6,r6
        0x00000342:    ea4575c0    E..u    ORR      r5,r5,r0,LSL #31
        0x00000346:    ea4f5207    O..R    LSL      r2,r7,#20
        0x0000034a:    1b00        ..      SUBS     r0,r0,r4
        0x0000034c:    eb610102    a...    SBC      r1,r1,r2
        0x00000350:    1c00        ..      ADDS     r0,r0,#0
        0x00000352:    f5411180    A...    ADC      r1,r1,#0x100000
        0x00000356:    0849        I.      LSRS     r1,r1,#1
        0x00000358:    ea4f0030    O.0.    RRX      r0,r0
        0x0000035c:    1900        ..      ADDS     r0,r0,r4
        0x0000035e:    4151        QA      ADCS     r1,r1,r2
        0x00000360:    4632        2F      MOV      r2,r6
        0x00000362:    462b        +F      MOV      r3,r5
        0x00000364:    b003        ..      ADD      sp,sp,#0xc
        0x00000366:    e8bd4ff0    ...O    POP      {r4-r11,lr}
        0x0000036a:    f000b972    ..r.    B.W      _double_round ; 0x652
        0x0000036e:    9800        ..      LDR      r0,[sp,#0]
        0x00000370:    2201        ."      MOVS     r2,#1
        0x00000372:    0040        @.      LSLS     r0,r0,#1
        0x00000374:    2300        .#      MOVS     r3,#0
        0x00000376:    ebd00202    ....    RSBS     r2,r0,r2
        0x0000037a:    eb6373e0    c..s    SBC      r3,r3,r0,ASR #31
        0x0000037e:    9800        ..      LDR      r0,[sp,#0]
        0x00000380:    4621        !F      MOV      r1,r4
        0x00000382:    ea4f74e0    O..t    ASR      r4,r0,#31
        0x00000386:    ebb80000    ....    SUBS     r0,r8,r0
        0x0000038a:    eb610104    a...    SBC      r1,r1,r4
        0x0000038e:    e7e9        ..      B        0x364 ; __I$use$fp + 278
    __aeabi_dsub
        0x00000390:    f0834300    ...C    EOR      r3,r3,#0x80000000
        0x00000394:    e75b        [.      B        __I$use$fp ; 0x24e
    __aeabi_drsub
        0x00000396:    f0814100    ...A    EOR      r1,r1,#0x80000000
        0x0000039a:    e758        X.      B        __I$use$fp ; 0x24e
    .text
    __aeabi_dmul
        0x0000039c:    e92d4ffe    -..O    PUSH     {r1-r11,lr}
        0x000003a0:    ea810403    ....    EOR      r4,r1,r3
        0x000003a4:    f0044400    ...D    AND      r4,r4,#0x80000000
        0x000003a8:    f0214100    !..A    BIC      r1,r1,#0x80000000
        0x000003ac:    9400        ..      STR      r4,[sp,#0]
        0x000003ae:    f04f0b00    O...    MOV      r11,#0
        0x000003b2:    f0234300    #..C    BIC      r3,r3,#0x80000000
        0x000003b6:    ea500401    P...    ORRS     r4,r0,r1
        0x000003ba:    d05e        ^.      BEQ      0x47a ; __aeabi_dmul + 222
        0x000003bc:    ea520403    R...    ORRS     r4,r2,r3
        0x000003c0:    d05b        [.      BEQ      0x47a ; __aeabi_dmul + 222
        0x000003c2:    f3c3540a    ...T    UBFX     r4,r3,#20,#11
        0x000003c6:    f3c1550a    ...U    UBFX     r5,r1,#20,#11
        0x000003ca:    442c        ,D      ADD      r4,r4,r5
        0x000003cc:    f2a434f3    ...4    SUB      r4,r4,#0x3f3
        0x000003d0:    9401        ..      STR      r4,[sp,#4]
        0x000003d2:    fba05402    ...T    UMULL    r5,r4,r0,r2
        0x000003d6:    f3c10113    ....    UBFX     r1,r1,#0,#20
        0x000003da:    f4411180    A...    ORR      r1,r1,#0x100000
        0x000003de:    f3c30313    ....    UBFX     r3,r3,#0,#20
        0x000003e2:    f4431380    C...    ORR      r3,r3,#0x100000
        0x000003e6:    fb014402    ...D    MLA      r4,r1,r2,r4
        0x000003ea:    fb004e03    ...N    MLA      lr,r0,r3,r4
        0x000003ee:    0a84        ..      LSRS     r4,r0,#10
        0x000003f0:    0a97        ..      LSRS     r7,r2,#10
        0x000003f2:    ea445481    D..T    ORR      r4,r4,r1,LSL #22
        0x000003f6:    ea475783    G..W    ORR      r7,r7,r3,LSL #22
        0x000003fa:    fba46807    ...h    UMULL    r6,r8,r4,r7
        0x000003fe:    9502        ..      STR      r5,[sp,#8]
        0x00000400:    0a8d        ..      LSRS     r5,r1,#10
        0x00000402:    fb058507    ....    MLA      r5,r5,r7,r8
        0x00000406:    ea4f2c93    O..,    LSR      r12,r3,#10
        0x0000040a:    fb04540c    ...T    MLA      r4,r4,r12,r5
        0x0000040e:    0527        '.      LSLS     r7,r4,#20
        0x00000410:    9d02        ..      LDR      r5,[sp,#8]
        0x00000412:    ea4f5806    O..X    LSL      r8,r6,#20
        0x00000416:    ea473716    G..7    ORR      r7,r7,r6,LSR #12
        0x0000041a:    ebb50508    ....    SUBS     r5,r5,r8
        0x0000041e:    eb6e0c07    n...    SBC      r12,lr,r7
        0x00000422:    0e87        ..      LSRS     r7,r0,#26
        0x00000424:    0e92        ..      LSRS     r2,r2,#26
        0x00000426:    ea471781    G...    ORR      r7,r7,r1,LSL #6
        0x0000042a:    ea421283    B...    ORR      r2,r2,r3,LSL #6
        0x0000042e:    fba70102    ....    UMULL    r0,r1,r7,r2
        0x00000432:    ebb6010b    ....    SUBS     r1,r6,r11
        0x00000436:    eb640400    d...    SBC      r4,r4,r0
        0x0000043a:    0d2b        +.      LSRS     r3,r5,#20
        0x0000043c:    ea43330c    C..3    ORR      r3,r3,r12,LSL #12
        0x00000440:    185e        ^.      ADDS     r6,r3,r1
        0x00000442:    eb44501c    D..P    ADC      r0,r4,r12,LSR #20
        0x00000446:    46da        .F      MOV      r10,r11
        0x00000448:    4651        QF      MOV      r1,r10
        0x0000044a:    fbe70102    ....    UMLAL    r0,r1,r7,r2
        0x0000044e:    f3c50413    ....    UBFX     r4,r5,#0,#20
        0x00000452:    ea4f330b    O..3    LSL      r3,r11,#12
        0x00000456:    ea435314    C..S    ORR      r3,r3,r4,LSR #20
        0x0000045a:    ea4f3204    O..2    LSL      r2,r4,#12
        0x0000045e:    9c01        ..      LDR      r4,[sp,#4]
        0x00000460:    ea430306    C...    ORR      r3,r3,r6
        0x00000464:    f1a4040c    ....    SUB      r4,r4,#0xc
        0x00000468:    9402        ..      STR      r4,[sp,#8]
        0x0000046a:    9c00        ..      LDR      r4,[sp,#0]
        0x0000046c:    e9cdb400    ....    STRD     r11,r4,[sp,#0]
        0x00000470:    f000f8fe    ....    BL       _double_epilogue ; 0x670
        0x00000474:    b003        ..      ADD      sp,sp,#0xc
        0x00000476:    e8bd8ff0    ....    POP      {r4-r11,pc}
        0x0000047a:    2000        .       MOVS     r0,#0
        0x0000047c:    4601        .F      MOV      r1,r0
        0x0000047e:    e7f9        ..      B        0x474 ; __aeabi_dmul + 216
    .text
    __aeabi_ddiv
        0x00000480:    e92d4df0    -..M    PUSH     {r4-r8,r10,r11,lr}
        0x00000484:    ea810403    ....    EOR      r4,r1,r3
        0x00000488:    f0044b00    ...K    AND      r11,r4,#0x80000000
        0x0000048c:    f0214500    !..E    BIC      r5,r1,#0x80000000
        0x00000490:    4614        .F      MOV      r4,r2
        0x00000492:    f04f0a00    O...    MOV      r10,#0
        0x00000496:    f0234100    #..A    BIC      r1,r3,#0x80000000
        0x0000049a:    ea500205    P...    ORRS     r2,r0,r5
        0x0000049e:    d020         .      BEQ      0x4e2 ; __aeabi_ddiv + 98
        0x000004a0:    ea540201    T...    ORRS     r2,r4,r1
        0x000004a4:    d01d        ..      BEQ      0x4e2 ; __aeabi_ddiv + 98
        0x000004a6:    f3c5570a    ...W    UBFX     r7,r5,#20,#11
        0x000004aa:    4602        .F      MOV      r2,r0
        0x000004ac:    f3c50313    ....    UBFX     r3,r5,#0,#20
        0x000004b0:    f3c10013    ....    UBFX     r0,r1,#0,#20
        0x000004b4:    f3c1560a    ...V    UBFX     r6,r1,#20,#11
        0x000004b8:    f4401580    @...    ORR      r5,r0,#0x100000
        0x000004bc:    f4431380    C...    ORR      r3,r3,#0x100000
        0x000004c0:    eba70806    ....    SUB      r8,r7,r6
        0x000004c4:    1b10        ..      SUBS     r0,r2,r4
        0x000004c6:    46d6        .F      MOV      lr,r10
        0x000004c8:    f20838fd    ...8    ADD      r8,r8,#0x3fd
        0x000004cc:    eb730005    s...    SBCS     r0,r3,r5
        0x000004d0:    d302        ..      BCC      0x4d8 ; __aeabi_ddiv + 88
        0x000004d2:    f1080801    ....    ADD      r8,r8,#1
        0x000004d6:    e001        ..      B        0x4dc ; __aeabi_ddiv + 92
        0x000004d8:    1892        ..      ADDS     r2,r2,r2
        0x000004da:    415b        [A      ADCS     r3,r3,r3
        0x000004dc:    f1b80f00    ....    CMP      r8,#0
        0x000004e0:    da03        ..      BGE      0x4ea ; __aeabi_ddiv + 106
        0x000004e2:    2000        .       MOVS     r0,#0
        0x000004e4:    4601        .F      MOV      r1,r0
        0x000004e6:    e8bd8df0    ....    POP      {r4-r8,r10,r11,pc}
        0x000004ea:    2000        .       MOVS     r0,#0
        0x000004ec:    f44f1180    O...    MOV      r1,#0x100000
        0x000004f0:    4606        .F      MOV      r6,r0
        0x000004f2:    4684        .F      MOV      r12,r0
        0x000004f4:    e00e        ..      B        0x514 ; __aeabi_ddiv + 148
        0x000004f6:    1b17        ..      SUBS     r7,r2,r4
        0x000004f8:    eb730705    s...    SBCS     r7,r3,r5
        0x000004fc:    d305        ..      BCC      0x50a ; __aeabi_ddiv + 138
        0x000004fe:    1b12        ..      SUBS     r2,r2,r4
        0x00000500:    eb630305    c...    SBC      r3,r3,r5
        0x00000504:    4306        .C      ORRS     r6,r6,r0
        0x00000506:    ea4c0c01    L...    ORR      r12,r12,r1
        0x0000050a:    0849        I.      LSRS     r1,r1,#1
        0x0000050c:    ea4f0030    O.0.    RRX      r0,r0
        0x00000510:    1892        ..      ADDS     r2,r2,r2
        0x00000512:    415b        [A      ADCS     r3,r3,r3
        0x00000514:    ea500701    P...    ORRS     r7,r0,r1
        0x00000518:    d1ed        ..      BNE      0x4f6 ; __aeabi_ddiv + 118
        0x0000051a:    ea520003    R...    ORRS     r0,r2,r3
        0x0000051e:    d012        ..      BEQ      0x546 ; __aeabi_ddiv + 198
        0x00000520:    ea820004    ....    EOR      r0,r2,r4
        0x00000524:    ea830105    ....    EOR      r1,r3,r5
        0x00000528:    4308        .C      ORRS     r0,r0,r1
        0x0000052a:    d005        ..      BEQ      0x538 ; __aeabi_ddiv + 184
        0x0000052c:    1b10        ..      SUBS     r0,r2,r4
        0x0000052e:    41ab        .A      SBCS     r3,r3,r5
        0x00000530:    d206        ..      BCS      0x540 ; __aeabi_ddiv + 192
        0x00000532:    2201        ."      MOVS     r2,#1
        0x00000534:    2300        .#      MOVS     r3,#0
        0x00000536:    e006        ..      B        0x546 ; __aeabi_ddiv + 198
        0x00000538:    2200        ."      MOVS     r2,#0
        0x0000053a:    f04f4300    O..C    MOV      r3,#0x80000000
        0x0000053e:    e002        ..      B        0x546 ; __aeabi_ddiv + 198
        0x00000540:    f06f0201    o...    MVN      r2,#1
        0x00000544:    1053        S.      ASRS     r3,r2,#1
        0x00000546:    eb1a0006    ....    ADDS     r0,r10,r6
        0x0000054a:    eb4c5108    L..Q    ADC      r1,r12,r8,LSL #20
        0x0000054e:    eb10000a    ....    ADDS     r0,r0,r10
        0x00000552:    eb41010b    A...    ADC      r1,r1,r11
        0x00000556:    e8bd4df0    ...M    POP      {r4-r8,r10,r11,lr}
        0x0000055a:    f000b87a    ..z.    B.W      _double_round ; 0x652
    .text
    __aeabi_d2ulz
        0x0000055e:    f3c1520a    ...R    UBFX     r2,r1,#20,#11
        0x00000562:    f3c10113    ....    UBFX     r1,r1,#0,#20
        0x00000566:    f24033ff    @..3    MOV      r3,#0x3ff
        0x0000056a:    f4411180    A...    ORR      r1,r1,#0x100000
        0x0000056e:    429a        .B      CMP      r2,r3
        0x00000570:    da02        ..      BGE      0x578 ; __aeabi_d2ulz + 26
        0x00000572:    2000        .       MOVS     r0,#0
        0x00000574:    4601        .F      MOV      r1,r0
        0x00000576:    4770        pG      BX       lr
        0x00000578:    f2404333    @.3C    MOV      r3,#0x433
        0x0000057c:    429a        .B      CMP      r2,r3
        0x0000057e:    f2a24233    ..3B    SUB      r2,r2,#0x433
        0x00000582:    dc02        ..      BGT      0x58a ; __aeabi_d2ulz + 44
        0x00000584:    4252        RB      RSBS     r2,r2,#0
        0x00000586:    f000b842    ..B.    B.W      __aeabi_llsr ; 0x60e
        0x0000058a:    f000b831    ..1.    B.W      __aeabi_llsl ; 0x5f0
        0x0000058e:    0000        ..      MOVS     r0,r0
    .text
    __aeabi_cdrcmple
        0x00000590:    b530        0.      PUSH     {r4,r5,lr}
        0x00000592:    1e04        ..      SUBS     r4,r0,#0
        0x00000594:    f1710400    q...    SBCS     r4,r1,#0
        0x00000598:    db04        ..      BLT      0x5a4 ; __aeabi_cdrcmple + 20
        0x0000059a:    f04f4400    O..D    MOV      r4,#0x80000000
        0x0000059e:    4240        @B      RSBS     r0,r0,#0
        0x000005a0:    eb640101    d...    SBC      r1,r4,r1
        0x000005a4:    1e14        ..      SUBS     r4,r2,#0
        0x000005a6:    f1730400    s...    SBCS     r4,r3,#0
        0x000005aa:    db05        ..      BLT      0x5b8 ; __aeabi_cdrcmple + 40
        0x000005ac:    461c        .F      MOV      r4,r3
        0x000005ae:    f04f4300    O..C    MOV      r3,#0x80000000
        0x000005b2:    4252        RB      RSBS     r2,r2,#0
        0x000005b4:    eb630304    c...    SBC      r3,r3,r4
        0x000005b8:    4299        .B      CMP      r1,r3
        0x000005ba:    bf08        ..      IT       EQ
        0x000005bc:    4290        .B      CMPEQ    r0,r2
        0x000005be:    bd30        0.      POP      {r4,r5,pc}
    .text
    __scatterload
    __scatterload_rt2
        0x000005c0:    b51c        ..      PUSH     {r2-r4,lr}
        0x000005c2:    4809        .H      LDR      r0,[pc,#36] ; [0x5e8] = 0x3ec0
        0x000005c4:    9000        ..      STR      r0,[sp,#0]
        0x000005c6:    4809        .H      LDR      r0,[pc,#36] ; [0x5ec] = 0x3ee0
        0x000005c8:    9001        ..      STR      r0,[sp,#4]
        0x000005ca:    4605        .F      MOV      r5,r0
        0x000005cc:    9c00        ..      LDR      r4,[sp,#0]
        0x000005ce:    e006        ..      B        0x5de ; __scatterload + 30
        0x000005d0:    68e0        .h      LDR      r0,[r4,#0xc]
        0x000005d2:    f0400301    @...    ORR      r3,r0,#1
        0x000005d6:    e8940007    ....    LDM      r4,{r0-r2}
        0x000005da:    4798        .G      BLX      r3
        0x000005dc:    3410        .4      ADDS     r4,r4,#0x10
        0x000005de:    42ac        .B      CMP      r4,r5
        0x000005e0:    d3f6        ..      BCC      0x5d0 ; __scatterload + 16
        0x000005e2:    f7fffdb1    ....    BL       __main_after_scatterload ; 0x148
    $d
        0x000005e6:    0000        ..      DCW    0
        0x000005e8:    00003ec0    .>..    DCD    16064
        0x000005ec:    00003ee0    .>..    DCD    16096
    $t
    .text
    __aeabi_llsl
    _ll_shift_l
        0x000005f0:    2a20         *      CMP      r2,#0x20
        0x000005f2:    db04        ..      BLT      0x5fe ; __aeabi_llsl + 14
        0x000005f4:    3a20         :      SUBS     r2,r2,#0x20
        0x000005f6:    fa00f102    ....    LSL      r1,r0,r2
        0x000005fa:    2000        .       MOVS     r0,#0
        0x000005fc:    4770        pG      BX       lr
        0x000005fe:    4091        .@      LSLS     r1,r1,r2
        0x00000600:    f1c20320    .. .    RSB      r3,r2,#0x20
        0x00000604:    fa20f303     ...    LSR      r3,r0,r3
        0x00000608:    4319        .C      ORRS     r1,r1,r3
        0x0000060a:    4090        .@      LSLS     r0,r0,r2
        0x0000060c:    4770        pG      BX       lr
    .text
    __aeabi_llsr
    _ll_ushift_r
        0x0000060e:    2a20         *      CMP      r2,#0x20
        0x00000610:    db04        ..      BLT      0x61c ; __aeabi_llsr + 14
        0x00000612:    3a20         :      SUBS     r2,r2,#0x20
        0x00000614:    fa21f002    !...    LSR      r0,r1,r2
        0x00000618:    2100        .!      MOVS     r1,#0
        0x0000061a:    4770        pG      BX       lr
        0x0000061c:    fa21f302    !...    LSR      r3,r1,r2
        0x00000620:    40d0        .@      LSRS     r0,r0,r2
        0x00000622:    f1c20220    .. .    RSB      r2,r2,#0x20
        0x00000626:    4091        .@      LSLS     r1,r1,r2
        0x00000628:    4308        .C      ORRS     r0,r0,r1
        0x0000062a:    4619        .F      MOV      r1,r3
        0x0000062c:    4770        pG      BX       lr
    .text
    __aeabi_lasr
    _ll_sshift_r
        0x0000062e:    2a20         *      CMP      r2,#0x20
        0x00000630:    db06        ..      BLT      0x640 ; __aeabi_lasr + 18
        0x00000632:    17cb        ..      ASRS     r3,r1,#31
        0x00000634:    3a20         :      SUBS     r2,r2,#0x20
        0x00000636:    fa41f002    A...    ASR      r0,r1,r2
        0x0000063a:    ea4373e0    C..s    ORR      r3,r3,r0,ASR #31
        0x0000063e:    e006        ..      B        0x64e ; __aeabi_lasr + 32
        0x00000640:    fa41f302    A...    ASR      r3,r1,r2
        0x00000644:    40d0        .@      LSRS     r0,r0,r2
        0x00000646:    f1c20220    .. .    RSB      r2,r2,#0x20
        0x0000064a:    4091        .@      LSLS     r1,r1,r2
        0x0000064c:    4308        .C      ORRS     r0,r0,r1
        0x0000064e:    4619        .F      MOV      r1,r3
        0x00000650:    4770        pG      BX       lr
    .text
    _double_round
        0x00000652:    b510        ..      PUSH     {r4,lr}
        0x00000654:    1e14        ..      SUBS     r4,r2,#0
        0x00000656:    f1730400    s...    SBCS     r4,r3,#0
        0x0000065a:    da08        ..      BGE      0x66e ; _double_round + 28
        0x0000065c:    1c40        @.      ADDS     r0,r0,#1
        0x0000065e:    f1410100    A...    ADC      r1,r1,#0
        0x00000662:    1892        ..      ADDS     r2,r2,r2
        0x00000664:    415b        [A      ADCS     r3,r3,r3
        0x00000666:    431a        .C      ORRS     r2,r2,r3
        0x00000668:    d101        ..      BNE      0x66e ; _double_round + 28
        0x0000066a:    f0200001     ...    BIC      r0,r0,#1
        0x0000066e:    bd10        ..      POP      {r4,pc}
    _double_epilogue
        0x00000670:    e92d4df0    -..M    PUSH     {r4-r8,r10,r11,lr}
        0x00000674:    4692        .F      MOV      r10,r2
        0x00000676:    469b        .F      MOV      r11,r3
        0x00000678:    b111        ..      CBZ      r1,0x680 ; _double_epilogue + 16
        0x0000067a:    fab1f281    ....    CLZ      r2,r1
        0x0000067e:    e002        ..      B        0x686 ; _double_epilogue + 22
        0x00000680:    fab0f280    ....    CLZ      r2,r0
        0x00000684:    3220         2      ADDS     r2,r2,#0x20
        0x00000686:    4690        .F      MOV      r8,r2
        0x00000688:    f7ffffb2    ....    BL       __aeabi_llsl ; 0x5f0
        0x0000068c:    4604        .F      MOV      r4,r0
        0x0000068e:    460f        .F      MOV      r7,r1
        0x00000690:    ea40000a    @...    ORR      r0,r0,r10
        0x00000694:    ea41010b    A...    ORR      r1,r1,r11
        0x00000698:    4653        SF      MOV      r3,r10
        0x0000069a:    465a        ZF      MOV      r2,r11
        0x0000069c:    4308        .C      ORRS     r0,r0,r1
        0x0000069e:    d013        ..      BEQ      0x6c8 ; _double_epilogue + 88
        0x000006a0:    4611        .F      MOV      r1,r2
        0x000006a2:    ea530001    S...    ORRS     r0,r3,r1
        0x000006a6:    d019        ..      BEQ      0x6dc ; _double_epilogue + 108
        0x000006a8:    f1c80240    ..@.    RSB      r2,r8,#0x40
        0x000006ac:    4650        PF      MOV      r0,r10
        0x000006ae:    f7ffffae    ....    BL       __aeabi_llsr ; 0x60e
        0x000006b2:    4605        .F      MOV      r5,r0
        0x000006b4:    460e        .F      MOV      r6,r1
        0x000006b6:    4650        PF      MOV      r0,r10
        0x000006b8:    4659        YF      MOV      r1,r11
        0x000006ba:    4642        BF      MOV      r2,r8
        0x000006bc:    f7ffff98    ....    BL       __aeabi_llsl ; 0x5f0
        0x000006c0:    4308        .C      ORRS     r0,r0,r1
        0x000006c2:    d005        ..      BEQ      0x6d0 ; _double_epilogue + 96
        0x000006c4:    2001        .       MOVS     r0,#1
        0x000006c6:    e004        ..      B        0x6d2 ; _double_epilogue + 98
        0x000006c8:    4620         F      MOV      r0,r4
        0x000006ca:    4639        9F      MOV      r1,r7
        0x000006cc:    e8bd8df0    ....    POP      {r4-r8,r10,r11,pc}
        0x000006d0:    2000        .       MOVS     r0,#0
        0x000006d2:    4305        .C      ORRS     r5,r5,r0
        0x000006d4:    ea4676e0    F..v    ORR      r6,r6,r0,ASR #31
        0x000006d8:    432c        ,C      ORRS     r4,r4,r5
        0x000006da:    4337        7C      ORRS     r7,r7,r6
        0x000006dc:    980a        ..      LDR      r0,[sp,#0x28]
        0x000006de:    0563        c.      LSLS     r3,r4,#21
        0x000006e0:    0ae4        ..      LSRS     r4,r4,#11
        0x000006e2:    eba00008    ....    SUB      r0,r0,r8
        0x000006e6:    2200        ."      MOVS     r2,#0
        0x000006e8:    0afd        ..      LSRS     r5,r7,#11
        0x000006ea:    ea445447    D.GT    ORR      r4,r4,r7,LSL #21
        0x000006ee:    300a        .0      ADDS     r0,r0,#0xa
        0x000006f0:    d502        ..      BPL      0x6f8 ; _double_epilogue + 136
        0x000006f2:    2000        .       MOVS     r0,#0
        0x000006f4:    4601        .F      MOV      r1,r0
        0x000006f6:    e7e9        ..      B        0x6cc ; _double_epilogue + 92
        0x000006f8:    0501        ..      LSLS     r1,r0,#20
        0x000006fa:    1910        ..      ADDS     r0,r2,r4
        0x000006fc:    4169        iA      ADCS     r1,r1,r5
        0x000006fe:    e9dd4508    ...E    LDRD     r4,r5,[sp,#0x20]
        0x00000702:    1900        ..      ADDS     r0,r0,r4
        0x00000704:    4169        iA      ADCS     r1,r1,r5
        0x00000706:    e8bd4df0    ...M    POP      {r4-r8,r10,r11,lr}
        0x0000070a:    e7a2        ..      B        _double_round ; 0x652
    ADC00_IRQHandler
        0x0000070c:    f2401108    @...    MOVW     r1,#0x108
        0x00000710:    f2c20100    ....    MOVT     r1,#0x2000
        0x00000714:    2001        .       MOVS     r0,#1
        0x00000716:    6008        .`      STR      r0,[r1,#0]
        0x00000718:    f24301f8    C...    MOV      r1,#0x30f8
        0x0000071c:    f2c40104    ....    MOVT     r1,#0x4004
        0x00000720:    6008        .`      STR      r0,[r1,#0]
        0x00000722:    4770        pG      BX       lr
    CLK_DisablePLL
        0x00000724:    f2402140    @.@!    MOVW     r1,#0x240
        0x00000728:    f2c40100    ....    MOVT     r1,#0x4000
        0x0000072c:    6808        .h      LDR      r0,[r1,#0]
        0x0000072e:    f4403080    @..0    ORR      r0,r0,#0x10000
        0x00000732:    6008        .`      STR      r0,[r1,#0]
        0x00000734:    4770        pG      BX       lr
        0x00000736:    0000        ..      MOVS     r0,r0
    CLK_EnableModuleClock
        0x00000738:    b081        ..      SUB      sp,sp,#4
        0x0000073a:    9000        ..      STR      r0,[sp,#0]
        0x0000073c:    9800        ..      LDR      r0,[sp,#0]
        0x0000073e:    f000021f    ....    AND      r2,r0,#0x1f
        0x00000742:    2101        .!      MOVS     r1,#1
        0x00000744:    fa01f302    ....    LSL      r3,r1,r2
        0x00000748:    0f82        ..      LSRS     r2,r0,#30
        0x0000074a:    f2402104    @..!    MOVW     r1,#0x204
        0x0000074e:    f2c40100    ....    MOVT     r1,#0x4000
        0x00000752:    f8510022    Q.".    LDR      r0,[r1,r2,LSL #2]
        0x00000756:    4318        .C      ORRS     r0,r0,r3
        0x00000758:    f8410022    A.".    STR      r0,[r1,r2,LSL #2]
        0x0000075c:    b001        ..      ADD      sp,sp,#4
        0x0000075e:    4770        pG      BX       lr
    CLK_EnablePLL
        0x00000760:    b580        ..      PUSH     {r7,lr}
        0x00000762:    b090        ..      SUB      sp,sp,#0x40
        0x00000764:    900e        ..      STR      r0,[sp,#0x38]
        0x00000766:    910d        ..      STR      r1,[sp,#0x34]
        0x00000768:    f2402140    @.@!    MOVW     r1,#0x240
        0x0000076c:    f2c40100    ....    MOVT     r1,#0x4000
        0x00000770:    6808        .h      LDR      r0,[r1,#0]
        0x00000772:    f4403080    @..0    ORR      r0,r0,#0x10000
        0x00000776:    6008        .`      STR      r0,[r1,#0]
        0x00000778:    980e        ..      LDR      r0,[sp,#0x38]
        0x0000077a:    b9a8        ..      CBNZ     r0,0x7a8 ; CLK_EnablePLL + 72
        0x0000077c:    e7ff        ..      B        0x77e ; CLK_EnablePLL + 30
        0x0000077e:    f2402100    @..!    MOVW     r1,#0x200
        0x00000782:    f2c40100    ....    MOVT     r1,#0x4000
        0x00000786:    6808        .h      LDR      r0,[r1,#0]
        0x00000788:    f0400001    @...    ORR      r0,r0,#1
        0x0000078c:    6008        .`      STR      r0,[r1,#0]
        0x0000078e:    2001        .       MOVS     r0,#1
        0x00000790:    f000fb64    ..d.    BL       CLK_WaitClockReady ; 0xe5c
        0x00000794:    2000        .       MOVS     r0,#0
        0x00000796:    9008        ..      STR      r0,[sp,#0x20]
        0x00000798:    f2424000    B..@    MOVW     r0,#0x2400
        0x0000079c:    f2c000f4    ....    MOVT     r0,#0xf4
        0x000007a0:    900c        ..      STR      r0,[sp,#0x30]
        0x000007a2:    2002        .       MOVS     r0,#2
        0x000007a4:    900b        ..      STR      r0,[sp,#0x2c]
        0x000007a6:    e015        ..      B        0x7d4 ; CLK_EnablePLL + 116
        0x000007a8:    f2402100    @..!    MOVW     r1,#0x200
        0x000007ac:    f2c40100    ....    MOVT     r1,#0x4000
        0x000007b0:    6808        .h      LDR      r0,[r1,#0]
        0x000007b2:    f0400004    @...    ORR      r0,r0,#4
        0x000007b6:    6008        .`      STR      r0,[r1,#0]
        0x000007b8:    2010        .       MOVS     r0,#0x10
        0x000007ba:    f000fb4f    ..O.    BL       CLK_WaitClockReady ; 0xe5c
        0x000007be:    f44f2000    O..     MOV      r0,#0x80000
        0x000007c2:    9008        ..      STR      r0,[sp,#0x20]
        0x000007c4:    f2480000    H...    MOVW     r0,#0x8000
        0x000007c8:    f2c01051    ..Q.    MOVT     r0,#0x151
        0x000007cc:    900c        ..      STR      r0,[sp,#0x30]
        0x000007ce:    2004        .       MOVS     r0,#4
        0x000007d0:    900b        ..      STR      r0,[sp,#0x2c]
        0x000007d2:    e7ff        ..      B        0x7d4 ; CLK_EnablePLL + 116
        0x000007d4:    980d        ..      LDR      r0,[sp,#0x34]
        0x000007d6:    f2465100    F..Q    MOVW     r1,#0x6500
        0x000007da:    f6c151cd    ...Q    MOVT     r1,#0x1dcd
        0x000007de:    4288        .B      CMP      r0,r1
        0x000007e0:    d80b        ..      BHI      0x7fa ; CLK_EnablePLL + 154
        0x000007e2:    e7ff        ..      B        0x7e4 ; CLK_EnablePLL + 132
        0x000007e4:    980d        ..      LDR      r0,[sp,#0x34]
        0x000007e6:    f24b2181    K..!    MOV      r1,#0xb281
        0x000007ea:    f6c061e6    ...a    MOVT     r1,#0xee6
        0x000007ee:    4288        .B      CMP      r0,r1
        0x000007f0:    d303        ..      BCC      0x7fa ; CLK_EnablePLL + 154
        0x000007f2:    e7ff        ..      B        0x7f4 ; CLK_EnablePLL + 148
        0x000007f4:    2000        .       MOVS     r0,#0
        0x000007f6:    9009        ..      STR      r0,[sp,#0x24]
        0x000007f8:    e02e        ..      B        0x858 ; CLK_EnablePLL + 248
        0x000007fa:    980d        ..      LDR      r0,[sp,#0x34]
        0x000007fc:    f24b2180    K..!    MOV      r1,#0xb280
        0x00000800:    f6c061e6    ...a    MOVT     r1,#0xee6
        0x00000804:    4288        .B      CMP      r0,r1
        0x00000806:    d80e        ..      BHI      0x826 ; CLK_EnablePLL + 198
        0x00000808:    e7ff        ..      B        0x80a ; CLK_EnablePLL + 170
        0x0000080a:    980d        ..      LDR      r0,[sp,#0x34]
        0x0000080c:    f6451141    E.A.    MOV      r1,#0x5941
        0x00000810:    f2c07173    ..sq    MOVT     r1,#0x773
        0x00000814:    4288        .B      CMP      r0,r1
        0x00000816:    d306        ..      BCC      0x826 ; CLK_EnablePLL + 198
        0x00000818:    e7ff        ..      B        0x81a ; CLK_EnablePLL + 186
        0x0000081a:    2001        .       MOVS     r0,#1
        0x0000081c:    9009        ..      STR      r0,[sp,#0x24]
        0x0000081e:    980d        ..      LDR      r0,[sp,#0x34]
        0x00000820:    0040        @.      LSLS     r0,r0,#1
        0x00000822:    900d        ..      STR      r0,[sp,#0x34]
        0x00000824:    e017        ..      B        0x856 ; CLK_EnablePLL + 246
        0x00000826:    980d        ..      LDR      r0,[sp,#0x34]
        0x00000828:    f6451140    E.@.    MOV      r1,#0x5940
        0x0000082c:    f2c07173    ..sq    MOVT     r1,#0x773
        0x00000830:    4288        .B      CMP      r0,r1
        0x00000832:    d80e        ..      BHI      0x852 ; CLK_EnablePLL + 242
        0x00000834:    e7ff        ..      B        0x836 ; CLK_EnablePLL + 214
        0x00000836:    980d        ..      LDR      r0,[sp,#0x34]
        0x00000838:    f24f0180    O...    MOV      r1,#0xf080
        0x0000083c:    f2c021fa    ...!    MOVT     r1,#0x2fa
        0x00000840:    4288        .B      CMP      r0,r1
        0x00000842:    d306        ..      BCC      0x852 ; CLK_EnablePLL + 242
        0x00000844:    e7ff        ..      B        0x846 ; CLK_EnablePLL + 230
        0x00000846:    2003        .       MOVS     r0,#3
        0x00000848:    9009        ..      STR      r0,[sp,#0x24]
        0x0000084a:    980d        ..      LDR      r0,[sp,#0x34]
        0x0000084c:    0080        ..      LSLS     r0,r0,#2
        0x0000084e:    900d        ..      STR      r0,[sp,#0x34]
        0x00000850:    e000        ..      B        0x854 ; CLK_EnablePLL + 244
        0x00000852:    e08d        ..      B        0x970 ; CLK_EnablePLL + 528
        0x00000854:    e7ff        ..      B        0x856 ; CLK_EnablePLL + 246
        0x00000856:    e7ff        ..      B        0x858 ; CLK_EnablePLL + 248
        0x00000858:    f04f30ff    O..0    MOV      r0,#0xffffffff
        0x0000085c:    9004        ..      STR      r0,[sp,#0x10]
        0x0000085e:    2000        .       MOVS     r0,#0
        0x00000860:    9002        ..      STR      r0,[sp,#8]
        0x00000862:    9003        ..      STR      r0,[sp,#0xc]
        0x00000864:    e7ff        ..      B        0x866 ; CLK_EnablePLL + 262
        0x00000866:    980b        ..      LDR      r0,[sp,#0x2c]
        0x00000868:    2821        !(      CMP      r0,#0x21
        0x0000086a:    d85f        _.      BHI      0x92c ; CLK_EnablePLL + 460
        0x0000086c:    e7ff        ..      B        0x86e ; CLK_EnablePLL + 270
        0x0000086e:    980c        ..      LDR      r0,[sp,#0x30]
        0x00000870:    990b        ..      LDR      r1,[sp,#0x2c]
        0x00000872:    fbb0f0f1    ....    UDIV     r0,r0,r1
        0x00000876:    9007        ..      STR      r0,[sp,#0x1c]
        0x00000878:    9807        ..      LDR      r0,[sp,#0x1c]
        0x0000087a:    f6462101    F..!    MOV      r1,#0x6a01
        0x0000087e:    f2c00118    ....    MOVT     r1,#0x18
        0x00000882:    4288        .B      CMP      r0,r1
        0x00000884:    d34d        M.      BCC      0x922 ; CLK_EnablePLL + 450
        0x00000886:    e7ff        ..      B        0x888 ; CLK_EnablePLL + 296
        0x00000888:    9807        ..      LDR      r0,[sp,#0x1c]
        0x0000088a:    f24231ff    B..1    MOV      r1,#0x23ff
        0x0000088e:    f2c001f4    ....    MOVT     r1,#0xf4
        0x00000892:    4288        .B      CMP      r0,r1
        0x00000894:    d845        E.      BHI      0x922 ; CLK_EnablePLL + 450
        0x00000896:    e7ff        ..      B        0x898 ; CLK_EnablePLL + 312
        0x00000898:    2002        .       MOVS     r0,#2
        0x0000089a:    900a        ..      STR      r0,[sp,#0x28]
        0x0000089c:    e7ff        ..      B        0x89e ; CLK_EnablePLL + 318
        0x0000089e:    980a        ..      LDR      r0,[sp,#0x28]
        0x000008a0:    f2402101    @..!    MOV      r1,#0x201
        0x000008a4:    4288        .B      CMP      r0,r1
        0x000008a6:    d83b        ;.      BHI      0x920 ; CLK_EnablePLL + 448
        0x000008a8:    e7ff        ..      B        0x8aa ; CLK_EnablePLL + 330
        0x000008aa:    9807        ..      LDR      r0,[sp,#0x1c]
        0x000008ac:    990a        ..      LDR      r1,[sp,#0x28]
        0x000008ae:    4348        HC      MULS     r0,r1,r0
        0x000008b0:    9006        ..      STR      r0,[sp,#0x18]
        0x000008b2:    9806        ..      LDR      r0,[sp,#0x18]
        0x000008b4:    f24c2100    L..!    MOVW     r1,#0xc200
        0x000008b8:    f6c031eb    ...1    MOVT     r1,#0xbeb
        0x000008bc:    4288        .B      CMP      r0,r1
        0x000008be:    d32a        *.      BCC      0x916 ; CLK_EnablePLL + 438
        0x000008c0:    e7ff        ..      B        0x8c2 ; CLK_EnablePLL + 354
        0x000008c2:    9806        ..      LDR      r0,[sp,#0x18]
        0x000008c4:    f2465100    F..Q    MOVW     r1,#0x6500
        0x000008c8:    f6c151cd    ...Q    MOVT     r1,#0x1dcd
        0x000008cc:    4288        .B      CMP      r0,r1
        0x000008ce:    d822        ".      BHI      0x916 ; CLK_EnablePLL + 438
        0x000008d0:    e7ff        ..      B        0x8d2 ; CLK_EnablePLL + 370
        0x000008d2:    9806        ..      LDR      r0,[sp,#0x18]
        0x000008d4:    990d        ..      LDR      r1,[sp,#0x34]
        0x000008d6:    4288        .B      CMP      r0,r1
        0x000008d8:    d905        ..      BLS      0x8e6 ; CLK_EnablePLL + 390
        0x000008da:    e7ff        ..      B        0x8dc ; CLK_EnablePLL + 380
        0x000008dc:    9806        ..      LDR      r0,[sp,#0x18]
        0x000008de:    990d        ..      LDR      r1,[sp,#0x34]
        0x000008e0:    1a40        @.      SUBS     r0,r0,r1
        0x000008e2:    9001        ..      STR      r0,[sp,#4]
        0x000008e4:    e004        ..      B        0x8f0 ; CLK_EnablePLL + 400
        0x000008e6:    980d        ..      LDR      r0,[sp,#0x34]
        0x000008e8:    9906        ..      LDR      r1,[sp,#0x18]
        0x000008ea:    1a40        @.      SUBS     r0,r0,r1
        0x000008ec:    9001        ..      STR      r0,[sp,#4]
        0x000008ee:    e7ff        ..      B        0x8f0 ; CLK_EnablePLL + 400
        0x000008f0:    9801        ..      LDR      r0,[sp,#4]
        0x000008f2:    9005        ..      STR      r0,[sp,#0x14]
        0x000008f4:    9805        ..      LDR      r0,[sp,#0x14]
        0x000008f6:    9904        ..      LDR      r1,[sp,#0x10]
        0x000008f8:    4288        .B      CMP      r0,r1
        0x000008fa:    d20b        ..      BCS      0x914 ; CLK_EnablePLL + 436
        0x000008fc:    e7ff        ..      B        0x8fe ; CLK_EnablePLL + 414
        0x000008fe:    9805        ..      LDR      r0,[sp,#0x14]
        0x00000900:    9004        ..      STR      r0,[sp,#0x10]
        0x00000902:    980b        ..      LDR      r0,[sp,#0x2c]
        0x00000904:    9002        ..      STR      r0,[sp,#8]
        0x00000906:    980a        ..      LDR      r0,[sp,#0x28]
        0x00000908:    9003        ..      STR      r0,[sp,#0xc]
        0x0000090a:    9804        ..      LDR      r0,[sp,#0x10]
        0x0000090c:    b908        ..      CBNZ     r0,0x912 ; CLK_EnablePLL + 434
        0x0000090e:    e7ff        ..      B        0x910 ; CLK_EnablePLL + 432
        0x00000910:    e006        ..      B        0x920 ; CLK_EnablePLL + 448
        0x00000912:    e7ff        ..      B        0x914 ; CLK_EnablePLL + 436
        0x00000914:    e7ff        ..      B        0x916 ; CLK_EnablePLL + 438
        0x00000916:    e7ff        ..      B        0x918 ; CLK_EnablePLL + 440
        0x00000918:    980a        ..      LDR      r0,[sp,#0x28]
        0x0000091a:    3001        .0      ADDS     r0,#1
        0x0000091c:    900a        ..      STR      r0,[sp,#0x28]
        0x0000091e:    e7be        ..      B        0x89e ; CLK_EnablePLL + 318
        0x00000920:    e7ff        ..      B        0x922 ; CLK_EnablePLL + 450
        0x00000922:    e7ff        ..      B        0x924 ; CLK_EnablePLL + 452
        0x00000924:    980b        ..      LDR      r0,[sp,#0x2c]
        0x00000926:    3001        .0      ADDS     r0,#1
        0x00000928:    900b        ..      STR      r0,[sp,#0x2c]
        0x0000092a:    e79c        ..      B        0x866 ; CLK_EnablePLL + 262
        0x0000092c:    9808        ..      LDR      r0,[sp,#0x20]
        0x0000092e:    9909        ..      LDR      r1,[sp,#0x24]
        0x00000930:    ea403081    @..0    ORR      r0,r0,r1,LSL #14
        0x00000934:    9a02        ..      LDR      r2,[sp,#8]
        0x00000936:    f64f4100    O..A    MOVW     r1,#0xfc00
        0x0000093a:    f6cf71ff    ...q    MOVT     r1,#0xffff
        0x0000093e:    eb012142    ..B!    ADD      r1,r1,r2,LSL #9
        0x00000942:    4308        .C      ORRS     r0,r0,r1
        0x00000944:    9903        ..      LDR      r1,[sp,#0xc]
        0x00000946:    3902        .9      SUBS     r1,#2
        0x00000948:    4308        .C      ORRS     r0,r0,r1
        0x0000094a:    f2402140    @.@!    MOVW     r1,#0x240
        0x0000094e:    f2c40100    ....    MOVT     r1,#0x4000
        0x00000952:    6008        .`      STR      r0,[r1,#0]
        0x00000954:    2004        .       MOVS     r0,#4
        0x00000956:    f000fa81    ....    BL       CLK_WaitClockReady ; 0xe5c
        0x0000095a:    980c        ..      LDR      r0,[sp,#0x30]
        0x0000095c:    9909        ..      LDR      r1,[sp,#0x24]
        0x0000095e:    3101        .1      ADDS     r1,#1
        0x00000960:    9a02        ..      LDR      r2,[sp,#8]
        0x00000962:    4351        QC      MULS     r1,r2,r1
        0x00000964:    fbb0f0f1    ....    UDIV     r0,r0,r1
        0x00000968:    9903        ..      LDR      r1,[sp,#0xc]
        0x0000096a:    4348        HC      MULS     r0,r1,r0
        0x0000096c:    900f        ..      STR      r0,[sp,#0x3c]
        0x0000096e:    e01b        ..      B        0x9a8 ; CLK_EnablePLL + 584
        0x00000970:    980e        ..      LDR      r0,[sp,#0x38]
        0x00000972:    b940        @.      CBNZ     r0,0x986 ; CLK_EnablePLL + 550
        0x00000974:    e7ff        ..      B        0x976 ; CLK_EnablePLL + 534
        0x00000976:    f2402140    @.@!    MOVW     r1,#0x240
        0x0000097a:    f2c40100    ....    MOVT     r1,#0x4000
        0x0000097e:    f24c0022    L.".    MOV      r0,#0xc022
        0x00000982:    6008        .`      STR      r0,[r1,#0]
        0x00000984:    e009        ..      B        0x99a ; CLK_EnablePLL + 570
        0x00000986:    f2402140    @.@!    MOVW     r1,#0x240
        0x0000098a:    f2c40100    ....    MOVT     r1,#0x4000
        0x0000098e:    f24c4032    L.2@    MOV      r0,#0xc432
        0x00000992:    f2c00008    ....    MOVT     r0,#8
        0x00000996:    6008        .`      STR      r0,[r1,#0]
        0x00000998:    e7ff        ..      B        0x99a ; CLK_EnablePLL + 570
        0x0000099a:    2004        .       MOVS     r0,#4
        0x0000099c:    f000fa5e    ..^.    BL       CLK_WaitClockReady ; 0xe5c
        0x000009a0:    f000f8a8    ....    BL       CLK_GetPLLClockFreq ; 0xaf4
        0x000009a4:    900f        ..      STR      r0,[sp,#0x3c]
        0x000009a6:    e7ff        ..      B        0x9a8 ; CLK_EnablePLL + 584
        0x000009a8:    980f        ..      LDR      r0,[sp,#0x3c]
        0x000009aa:    b010        ..      ADD      sp,sp,#0x40
        0x000009ac:    bd80        ..      POP      {r7,pc}
        0x000009ae:    0000        ..      MOVS     r0,r0
    CLK_EnableXtalRC
        0x000009b0:    b081        ..      SUB      sp,sp,#4
        0x000009b2:    9000        ..      STR      r0,[sp,#0]
        0x000009b4:    9a00        ..      LDR      r2,[sp,#0]
        0x000009b6:    f2402100    @..!    MOVW     r1,#0x200
        0x000009ba:    f2c40100    ....    MOVT     r1,#0x4000
        0x000009be:    6808        .h      LDR      r0,[r1,#0]
        0x000009c0:    4310        .C      ORRS     r0,r0,r2
        0x000009c2:    6008        .`      STR      r0,[r1,#0]
        0x000009c4:    b001        ..      ADD      sp,sp,#4
        0x000009c6:    4770        pG      BX       lr
    CLK_GetPCLK0Freq
        0x000009c8:    b580        ..      PUSH     {r7,lr}
        0x000009ca:    b082        ..      SUB      sp,sp,#8
        0x000009cc:    f000ffcc    ....    BL       SystemCoreClockUpdate ; 0x1968
        0x000009d0:    f2402010    @..     MOVW     r0,#0x210
        0x000009d4:    f2c40000    ....    MOVT     r0,#0x4000
        0x000009d8:    6800        .h      LDR      r0,[r0,#0]
        0x000009da:    0640        @.      LSLS     r0,r0,#25
        0x000009dc:    2800        .(      CMP      r0,#0
        0x000009de:    d508        ..      BPL      0x9f2 ; CLK_GetPCLK0Freq + 42
        0x000009e0:    e7ff        ..      B        0x9e2 ; CLK_GetPCLK0Freq + 26
        0x000009e2:    f2400008    @...    MOVW     r0,#8
        0x000009e6:    f2c20000    ....    MOVT     r0,#0x2000
        0x000009ea:    6800        .h      LDR      r0,[r0,#0]
        0x000009ec:    0840        @.      LSRS     r0,r0,#1
        0x000009ee:    9001        ..      STR      r0,[sp,#4]
        0x000009f0:    e006        ..      B        0xa00 ; CLK_GetPCLK0Freq + 56
        0x000009f2:    f2400008    @...    MOVW     r0,#8
        0x000009f6:    f2c20000    ....    MOVT     r0,#0x2000
        0x000009fa:    6800        .h      LDR      r0,[r0,#0]
        0x000009fc:    9001        ..      STR      r0,[sp,#4]
        0x000009fe:    e7ff        ..      B        0xa00 ; CLK_GetPCLK0Freq + 56
        0x00000a00:    9801        ..      LDR      r0,[sp,#4]
        0x00000a02:    b002        ..      ADD      sp,sp,#8
        0x00000a04:    bd80        ..      POP      {r7,pc}
        0x00000a06:    0000        ..      MOVS     r0,r0
    CLK_GetPCLK1Freq
        0x00000a08:    b580        ..      PUSH     {r7,lr}
        0x00000a0a:    b082        ..      SUB      sp,sp,#8
        0x00000a0c:    f000ffac    ....    BL       SystemCoreClockUpdate ; 0x1968
        0x00000a10:    f2402010    @..     MOVW     r0,#0x210
        0x00000a14:    f2c40000    ....    MOVT     r0,#0x4000
        0x00000a18:    6800        .h      LDR      r0,[r0,#0]
        0x00000a1a:    0600        ..      LSLS     r0,r0,#24
        0x00000a1c:    2800        .(      CMP      r0,#0
        0x00000a1e:    d508        ..      BPL      0xa32 ; CLK_GetPCLK1Freq + 42
        0x00000a20:    e7ff        ..      B        0xa22 ; CLK_GetPCLK1Freq + 26
        0x00000a22:    f2400008    @...    MOVW     r0,#8
        0x00000a26:    f2c20000    ....    MOVT     r0,#0x2000
        0x00000a2a:    6800        .h      LDR      r0,[r0,#0]
        0x00000a2c:    0840        @.      LSRS     r0,r0,#1
        0x00000a2e:    9001        ..      STR      r0,[sp,#4]
        0x00000a30:    e006        ..      B        0xa40 ; CLK_GetPCLK1Freq + 56
        0x00000a32:    f2400008    @...    MOVW     r0,#8
        0x00000a36:    f2c20000    ....    MOVT     r0,#0x2000
        0x00000a3a:    6800        .h      LDR      r0,[r0,#0]
        0x00000a3c:    9001        ..      STR      r0,[sp,#4]
        0x00000a3e:    e7ff        ..      B        0xa40 ; CLK_GetPCLK1Freq + 56
        0x00000a40:    9801        ..      LDR      r0,[sp,#4]
        0x00000a42:    b002        ..      ADD      sp,sp,#8
        0x00000a44:    bd80        ..      POP      {r7,pc}
        0x00000a46:    0000        ..      MOVS     r0,r0
    CLK_GetPLLClockFreq
        0x00000a48:    b088        ..      SUB      sp,sp,#0x20
        0x00000a4a:    2000        .       MOVS     r0,#0
        0x00000a4c:    9006        ..      STR      r0,[sp,#0x18]
        0x00000a4e:    f2402001    @..     MOV      r0,#0x201
        0x00000a52:    f2c04002    ...@    MOVT     r0,#0x402
        0x00000a56:    9000        ..      STR      r0,[sp,#0]
        0x00000a58:    f2402040    @.@     MOVW     r0,#0x240
        0x00000a5c:    f2c40000    ....    MOVT     r0,#0x4000
        0x00000a60:    6800        .h      LDR      r0,[r0,#0]
        0x00000a62:    9005        ..      STR      r0,[sp,#0x14]
        0x00000a64:    f89d0016    ....    LDRB     r0,[sp,#0x16]
        0x00000a68:    f0100f05    ....    TST      r0,#5
        0x00000a6c:    d003        ..      BEQ      0xa76 ; CLK_GetPLLClockFreq + 46
        0x00000a6e:    e7ff        ..      B        0xa70 ; CLK_GetPLLClockFreq + 40
        0x00000a70:    2000        .       MOVS     r0,#0
        0x00000a72:    9007        ..      STR      r0,[sp,#0x1c]
        0x00000a74:    e03b        ;.      B        0xaee ; CLK_GetPLLClockFreq + 166
        0x00000a76:    f89d0016    ....    LDRB     r0,[sp,#0x16]
        0x00000a7a:    0700        ..      LSLS     r0,r0,#28
        0x00000a7c:    2800        .(      CMP      r0,#0
        0x00000a7e:    d506        ..      BPL      0xa8e ; CLK_GetPLLClockFreq + 70
        0x00000a80:    e7ff        ..      B        0xa82 ; CLK_GetPLLClockFreq + 58
        0x00000a82:    f2480000    H...    MOVW     r0,#0x8000
        0x00000a86:    f2c01051    ..Q.    MOVT     r0,#0x151
        0x00000a8a:    9004        ..      STR      r0,[sp,#0x10]
        0x00000a8c:    e005        ..      B        0xa9a ; CLK_GetPLLClockFreq + 82
        0x00000a8e:    f2424000    B..@    MOVW     r0,#0x2400
        0x00000a92:    f2c000f4    ....    MOVT     r0,#0xf4
        0x00000a96:    9004        ..      STR      r0,[sp,#0x10]
        0x00000a98:    e7ff        ..      B        0xa9a ; CLK_GetPLLClockFreq + 82
        0x00000a9a:    f89d0016    ....    LDRB     r0,[sp,#0x16]
        0x00000a9e:    0780        ..      LSLS     r0,r0,#30
        0x00000aa0:    2800        .(      CMP      r0,#0
        0x00000aa2:    d503        ..      BPL      0xaac ; CLK_GetPLLClockFreq + 100
        0x00000aa4:    e7ff        ..      B        0xaa6 ; CLK_GetPLLClockFreq + 94
        0x00000aa6:    9804        ..      LDR      r0,[sp,#0x10]
        0x00000aa8:    9007        ..      STR      r0,[sp,#0x1c]
        0x00000aaa:    e020         .      B        0xaee ; CLK_GetPLLClockFreq + 166
        0x00000aac:    f8bd1014    ....    LDRH     r1,[sp,#0x14]
        0x00000ab0:    4668        hF      MOV      r0,sp
        0x00000ab2:    ea403091    @..0    ORR      r0,r0,r1,LSR #14
        0x00000ab6:    7800        .x      LDRB     r0,[r0,#0]
        0x00000ab8:    9001        ..      STR      r0,[sp,#4]
        0x00000aba:    9805        ..      LDR      r0,[sp,#0x14]
        0x00000abc:    f36f205f    o._     BFC      r0,#9,#23
        0x00000ac0:    3002        .0      ADDS     r0,#2
        0x00000ac2:    9003        ..      STR      r0,[sp,#0xc]
        0x00000ac4:    9805        ..      LDR      r0,[sp,#0x14]
        0x00000ac6:    f4005178    ..xQ    AND      r1,r0,#0x3e00
        0x00000aca:    2002        .       MOVS     r0,#2
        0x00000acc:    eb002051    ..Q     ADD      r0,r0,r1,LSR #9
        0x00000ad0:    9002        ..      STR      r0,[sp,#8]
        0x00000ad2:    9804        ..      LDR      r0,[sp,#0x10]
        0x00000ad4:    0880        ..      LSRS     r0,r0,#2
        0x00000ad6:    9903        ..      LDR      r1,[sp,#0xc]
        0x00000ad8:    4348        HC      MULS     r0,r1,r0
        0x00000ada:    9902        ..      LDR      r1,[sp,#8]
        0x00000adc:    9a01        ..      LDR      r2,[sp,#4]
        0x00000ade:    4351        QC      MULS     r1,r2,r1
        0x00000ae0:    fbb0f0f1    ....    UDIV     r0,r0,r1
        0x00000ae4:    0080        ..      LSLS     r0,r0,#2
        0x00000ae6:    9006        ..      STR      r0,[sp,#0x18]
        0x00000ae8:    9806        ..      LDR      r0,[sp,#0x18]
        0x00000aea:    9007        ..      STR      r0,[sp,#0x1c]
        0x00000aec:    e7ff        ..      B        0xaee ; CLK_GetPLLClockFreq + 166
        0x00000aee:    9807        ..      LDR      r0,[sp,#0x1c]
        0x00000af0:    b008        ..      ADD      sp,sp,#0x20
        0x00000af2:    4770        pG      BX       lr
    CLK_GetPLLClockFreq
        0x00000af4:    b088        ..      SUB      sp,sp,#0x20
        0x00000af6:    2000        .       MOVS     r0,#0
        0x00000af8:    9006        ..      STR      r0,[sp,#0x18]
        0x00000afa:    f2402001    @..     MOV      r0,#0x201
        0x00000afe:    f2c04002    ...@    MOVT     r0,#0x402
        0x00000b02:    9000        ..      STR      r0,[sp,#0]
        0x00000b04:    f2402040    @.@     MOVW     r0,#0x240
        0x00000b08:    f2c40000    ....    MOVT     r0,#0x4000
        0x00000b0c:    6800        .h      LDR      r0,[r0,#0]
        0x00000b0e:    9005        ..      STR      r0,[sp,#0x14]
        0x00000b10:    f89d0016    ....    LDRB     r0,[sp,#0x16]
        0x00000b14:    f0100f05    ....    TST      r0,#5
        0x00000b18:    d003        ..      BEQ      0xb22 ; CLK_GetPLLClockFreq + 46
        0x00000b1a:    e7ff        ..      B        0xb1c ; CLK_GetPLLClockFreq + 40
        0x00000b1c:    2000        .       MOVS     r0,#0
        0x00000b1e:    9007        ..      STR      r0,[sp,#0x1c]
        0x00000b20:    e03b        ;.      B        0xb9a ; CLK_GetPLLClockFreq + 166
        0x00000b22:    f89d0016    ....    LDRB     r0,[sp,#0x16]
        0x00000b26:    0700        ..      LSLS     r0,r0,#28
        0x00000b28:    2800        .(      CMP      r0,#0
        0x00000b2a:    d506        ..      BPL      0xb3a ; CLK_GetPLLClockFreq + 70
        0x00000b2c:    e7ff        ..      B        0xb2e ; CLK_GetPLLClockFreq + 58
        0x00000b2e:    f2480000    H...    MOVW     r0,#0x8000
        0x00000b32:    f2c01051    ..Q.    MOVT     r0,#0x151
        0x00000b36:    9004        ..      STR      r0,[sp,#0x10]
        0x00000b38:    e005        ..      B        0xb46 ; CLK_GetPLLClockFreq + 82
        0x00000b3a:    f2424000    B..@    MOVW     r0,#0x2400
        0x00000b3e:    f2c000f4    ....    MOVT     r0,#0xf4
        0x00000b42:    9004        ..      STR      r0,[sp,#0x10]
        0x00000b44:    e7ff        ..      B        0xb46 ; CLK_GetPLLClockFreq + 82
        0x00000b46:    f89d0016    ....    LDRB     r0,[sp,#0x16]
        0x00000b4a:    0780        ..      LSLS     r0,r0,#30
        0x00000b4c:    2800        .(      CMP      r0,#0
        0x00000b4e:    d503        ..      BPL      0xb58 ; CLK_GetPLLClockFreq + 100
        0x00000b50:    e7ff        ..      B        0xb52 ; CLK_GetPLLClockFreq + 94
        0x00000b52:    9804        ..      LDR      r0,[sp,#0x10]
        0x00000b54:    9007        ..      STR      r0,[sp,#0x1c]
        0x00000b56:    e020         .      B        0xb9a ; CLK_GetPLLClockFreq + 166
        0x00000b58:    f8bd1014    ....    LDRH     r1,[sp,#0x14]
        0x00000b5c:    4668        hF      MOV      r0,sp
        0x00000b5e:    ea403091    @..0    ORR      r0,r0,r1,LSR #14
        0x00000b62:    7800        .x      LDRB     r0,[r0,#0]
        0x00000b64:    9001        ..      STR      r0,[sp,#4]
        0x00000b66:    9805        ..      LDR      r0,[sp,#0x14]
        0x00000b68:    f36f205f    o._     BFC      r0,#9,#23
        0x00000b6c:    3002        .0      ADDS     r0,#2
        0x00000b6e:    9003        ..      STR      r0,[sp,#0xc]
        0x00000b70:    9805        ..      LDR      r0,[sp,#0x14]
        0x00000b72:    f4005178    ..xQ    AND      r1,r0,#0x3e00
        0x00000b76:    2002        .       MOVS     r0,#2
        0x00000b78:    eb002051    ..Q     ADD      r0,r0,r1,LSR #9
        0x00000b7c:    9002        ..      STR      r0,[sp,#8]
        0x00000b7e:    9804        ..      LDR      r0,[sp,#0x10]
        0x00000b80:    0880        ..      LSRS     r0,r0,#2
        0x00000b82:    9903        ..      LDR      r1,[sp,#0xc]
        0x00000b84:    4348        HC      MULS     r0,r1,r0
        0x00000b86:    9902        ..      LDR      r1,[sp,#8]
        0x00000b88:    9a01        ..      LDR      r2,[sp,#4]
        0x00000b8a:    4351        QC      MULS     r1,r2,r1
        0x00000b8c:    fbb0f0f1    ....    UDIV     r0,r0,r1
        0x00000b90:    0080        ..      LSLS     r0,r0,#2
        0x00000b92:    9006        ..      STR      r0,[sp,#0x18]
        0x00000b94:    9806        ..      LDR      r0,[sp,#0x18]
        0x00000b96:    9007        ..      STR      r0,[sp,#0x1c]
        0x00000b98:    e7ff        ..      B        0xb9a ; CLK_GetPLLClockFreq + 166
        0x00000b9a:    9807        ..      LDR      r0,[sp,#0x1c]
        0x00000b9c:    b008        ..      ADD      sp,sp,#0x20
        0x00000b9e:    4770        pG      BX       lr
    CLK_GetPLLClockFreq
        0x00000ba0:    b088        ..      SUB      sp,sp,#0x20
        0x00000ba2:    2000        .       MOVS     r0,#0
        0x00000ba4:    9006        ..      STR      r0,[sp,#0x18]
        0x00000ba6:    f2402001    @..     MOV      r0,#0x201
        0x00000baa:    f2c04002    ...@    MOVT     r0,#0x402
        0x00000bae:    9000        ..      STR      r0,[sp,#0]
        0x00000bb0:    f2402040    @.@     MOVW     r0,#0x240
        0x00000bb4:    f2c40000    ....    MOVT     r0,#0x4000
        0x00000bb8:    6800        .h      LDR      r0,[r0,#0]
        0x00000bba:    9005        ..      STR      r0,[sp,#0x14]
        0x00000bbc:    f89d0016    ....    LDRB     r0,[sp,#0x16]
        0x00000bc0:    f0100f05    ....    TST      r0,#5
        0x00000bc4:    d003        ..      BEQ      0xbce ; CLK_GetPLLClockFreq + 46
        0x00000bc6:    e7ff        ..      B        0xbc8 ; CLK_GetPLLClockFreq + 40
        0x00000bc8:    2000        .       MOVS     r0,#0
        0x00000bca:    9007        ..      STR      r0,[sp,#0x1c]
        0x00000bcc:    e03b        ;.      B        0xc46 ; CLK_GetPLLClockFreq + 166
        0x00000bce:    f89d0016    ....    LDRB     r0,[sp,#0x16]
        0x00000bd2:    0700        ..      LSLS     r0,r0,#28
        0x00000bd4:    2800        .(      CMP      r0,#0
        0x00000bd6:    d506        ..      BPL      0xbe6 ; CLK_GetPLLClockFreq + 70
        0x00000bd8:    e7ff        ..      B        0xbda ; CLK_GetPLLClockFreq + 58
        0x00000bda:    f2480000    H...    MOVW     r0,#0x8000
        0x00000bde:    f2c01051    ..Q.    MOVT     r0,#0x151
        0x00000be2:    9004        ..      STR      r0,[sp,#0x10]
        0x00000be4:    e005        ..      B        0xbf2 ; CLK_GetPLLClockFreq + 82
        0x00000be6:    f2424000    B..@    MOVW     r0,#0x2400
        0x00000bea:    f2c000f4    ....    MOVT     r0,#0xf4
        0x00000bee:    9004        ..      STR      r0,[sp,#0x10]
        0x00000bf0:    e7ff        ..      B        0xbf2 ; CLK_GetPLLClockFreq + 82
        0x00000bf2:    f89d0016    ....    LDRB     r0,[sp,#0x16]
        0x00000bf6:    0780        ..      LSLS     r0,r0,#30
        0x00000bf8:    2800        .(      CMP      r0,#0
        0x00000bfa:    d503        ..      BPL      0xc04 ; CLK_GetPLLClockFreq + 100
        0x00000bfc:    e7ff        ..      B        0xbfe ; CLK_GetPLLClockFreq + 94
        0x00000bfe:    9804        ..      LDR      r0,[sp,#0x10]
        0x00000c00:    9007        ..      STR      r0,[sp,#0x1c]
        0x00000c02:    e020         .      B        0xc46 ; CLK_GetPLLClockFreq + 166
        0x00000c04:    f8bd1014    ....    LDRH     r1,[sp,#0x14]
        0x00000c08:    4668        hF      MOV      r0,sp
        0x00000c0a:    ea403091    @..0    ORR      r0,r0,r1,LSR #14
        0x00000c0e:    7800        .x      LDRB     r0,[r0,#0]
        0x00000c10:    9001        ..      STR      r0,[sp,#4]
        0x00000c12:    9805        ..      LDR      r0,[sp,#0x14]
        0x00000c14:    f36f205f    o._     BFC      r0,#9,#23
        0x00000c18:    3002        .0      ADDS     r0,#2
        0x00000c1a:    9003        ..      STR      r0,[sp,#0xc]
        0x00000c1c:    9805        ..      LDR      r0,[sp,#0x14]
        0x00000c1e:    f4005178    ..xQ    AND      r1,r0,#0x3e00
        0x00000c22:    2002        .       MOVS     r0,#2
        0x00000c24:    eb002051    ..Q     ADD      r0,r0,r1,LSR #9
        0x00000c28:    9002        ..      STR      r0,[sp,#8]
        0x00000c2a:    9804        ..      LDR      r0,[sp,#0x10]
        0x00000c2c:    0880        ..      LSRS     r0,r0,#2
        0x00000c2e:    9903        ..      LDR      r1,[sp,#0xc]
        0x00000c30:    4348        HC      MULS     r0,r1,r0
        0x00000c32:    9902        ..      LDR      r1,[sp,#8]
        0x00000c34:    9a01        ..      LDR      r2,[sp,#4]
        0x00000c36:    4351        QC      MULS     r1,r2,r1
        0x00000c38:    fbb0f0f1    ....    UDIV     r0,r0,r1
        0x00000c3c:    0080        ..      LSLS     r0,r0,#2
        0x00000c3e:    9006        ..      STR      r0,[sp,#0x18]
        0x00000c40:    9806        ..      LDR      r0,[sp,#0x18]
        0x00000c42:    9007        ..      STR      r0,[sp,#0x1c]
        0x00000c44:    e7ff        ..      B        0xc46 ; CLK_GetPLLClockFreq + 166
        0x00000c46:    9807        ..      LDR      r0,[sp,#0x1c]
        0x00000c48:    b008        ..      ADD      sp,sp,#0x20
        0x00000c4a:    4770        pG      BX       lr
    CLK_SetCoreClock
        0x00000c4c:    b580        ..      PUSH     {r7,lr}
        0x00000c4e:    b082        ..      SUB      sp,sp,#8
        0x00000c50:    9001        ..      STR      r0,[sp,#4]
        0x00000c52:    f2402050    @.P     MOVW     r0,#0x250
        0x00000c56:    f2c40000    ....    MOVT     r0,#0x4000
        0x00000c5a:    6800        .h      LDR      r0,[r0,#0]
        0x00000c5c:    f0000010    ....    AND      r0,r0,#0x10
        0x00000c60:    9000        ..      STR      r0,[sp,#0]
        0x00000c62:    9801        ..      LDR      r0,[sp,#4]
        0x00000c64:    f24a2101    J..!    MOV      r1,#0xa201
        0x00000c68:    f2c0414a    ..JA    MOVT     r1,#0x44a
        0x00000c6c:    4288        .B      CMP      r0,r1
        0x00000c6e:    d306        ..      BCC      0xc7e ; CLK_SetCoreClock + 50
        0x00000c70:    e7ff        ..      B        0xc72 ; CLK_SetCoreClock + 38
        0x00000c72:    f24a2000    J..     MOVW     r0,#0xa200
        0x00000c76:    f2c0404a    ..J@    MOVT     r0,#0x44a
        0x00000c7a:    9001        ..      STR      r0,[sp,#4]
        0x00000c7c:    e7ff        ..      B        0xc7e ; CLK_SetCoreClock + 50
        0x00000c7e:    9801        ..      LDR      r0,[sp,#4]
        0x00000c80:    f647013f    G.?.    MOV      r1,#0x783f
        0x00000c84:    f2c0117d    ..}.    MOVT     r1,#0x17d
        0x00000c88:    4288        .B      CMP      r0,r1
        0x00000c8a:    d806        ..      BHI      0xc9a ; CLK_SetCoreClock + 78
        0x00000c8c:    e7ff        ..      B        0xc8e ; CLK_SetCoreClock + 66
        0x00000c8e:    f6470040    G.@.    MOV      r0,#0x7840
        0x00000c92:    f2c0107d    ..}.    MOVT     r0,#0x17d
        0x00000c96:    9001        ..      STR      r0,[sp,#4]
        0x00000c98:    e7ff        ..      B        0xc9a ; CLK_SetCoreClock + 78
        0x00000c9a:    f2402100    @..!    MOVW     r1,#0x200
        0x00000c9e:    f2c40100    ....    MOVT     r1,#0x4000
        0x00000ca2:    6808        .h      LDR      r0,[r1,#0]
        0x00000ca4:    f0400004    @...    ORR      r0,r0,#4
        0x00000ca8:    6008        .`      STR      r0,[r1,#0]
        0x00000caa:    2010        .       MOVS     r0,#0x10
        0x00000cac:    f000f8d6    ....    BL       CLK_WaitClockReady ; 0xe5c
        0x00000cb0:    f2402110    @..!    MOVW     r1,#0x210
        0x00000cb4:    f2c40100    ....    MOVT     r1,#0x4000
        0x00000cb8:    6808        .h      LDR      r0,[r1,#0]
        0x00000cba:    f0400007    @...    ORR      r0,r0,#7
        0x00000cbe:    6008        .`      STR      r0,[r1,#0]
        0x00000cc0:    f2402120    @. !    MOVW     r1,#0x220
        0x00000cc4:    f2c40100    ....    MOVT     r1,#0x4000
        0x00000cc8:    6808        .h      LDR      r0,[r1,#0]
        0x00000cca:    f020000f     ...    BIC      r0,r0,#0xf
        0x00000cce:    6008        .`      STR      r0,[r1,#0]
        0x00000cd0:    f2402050    @.P     MOVW     r0,#0x250
        0x00000cd4:    f2c40000    ....    MOVT     r0,#0x4000
        0x00000cd8:    6800        .h      LDR      r0,[r0,#0]
        0x00000cda:    07c0        ..      LSLS     r0,r0,#31
        0x00000cdc:    b138        8.      CBZ      r0,0xcee ; CLK_SetCoreClock + 162
        0x00000cde:    e7ff        ..      B        0xce0 ; CLK_SetCoreClock + 148
        0x00000ce0:    9801        ..      LDR      r0,[sp,#4]
        0x00000ce2:    0041        A.      LSLS     r1,r0,#1
        0x00000ce4:    2000        .       MOVS     r0,#0
        0x00000ce6:    f7fffd3b    ..;.    BL       CLK_EnablePLL ; 0x760
        0x00000cea:    9001        ..      STR      r0,[sp,#4]
        0x00000cec:    e00f        ..      B        0xd0e ; CLK_SetCoreClock + 194
        0x00000cee:    9801        ..      LDR      r0,[sp,#4]
        0x00000cf0:    0041        A.      LSLS     r1,r0,#1
        0x00000cf2:    f44f2000    O..     MOV      r0,#0x80000
        0x00000cf6:    f7fffd33    ..3.    BL       CLK_EnablePLL ; 0x760
        0x00000cfa:    9001        ..      STR      r0,[sp,#4]
        0x00000cfc:    f2402050    @.P     MOVW     r0,#0x250
        0x00000d00:    f2c40000    ....    MOVT     r0,#0x4000
        0x00000d04:    6800        .h      LDR      r0,[r0,#0]
        0x00000d06:    f0000010    ....    AND      r0,r0,#0x10
        0x00000d0a:    9000        ..      STR      r0,[sp,#0]
        0x00000d0c:    e7ff        ..      B        0xd0e ; CLK_SetCoreClock + 194
        0x00000d0e:    2002        .       MOVS     r0,#2
        0x00000d10:    2101        .!      MOVS     r1,#1
        0x00000d12:    f000f811    ....    BL       CLK_SetHCLK ; 0xd38
        0x00000d16:    9800        ..      LDR      r0,[sp,#0]
        0x00000d18:    b948        H.      CBNZ     r0,0xd2e ; CLK_SetCoreClock + 226
        0x00000d1a:    e7ff        ..      B        0xd1c ; CLK_SetCoreClock + 208
        0x00000d1c:    f2402100    @..!    MOVW     r1,#0x200
        0x00000d20:    f2c40100    ....    MOVT     r1,#0x4000
        0x00000d24:    6808        .h      LDR      r0,[r1,#0]
        0x00000d26:    f0200004     ...    BIC      r0,r0,#4
        0x00000d2a:    6008        .`      STR      r0,[r1,#0]
        0x00000d2c:    e7ff        ..      B        0xd2e ; CLK_SetCoreClock + 226
        0x00000d2e:    9801        ..      LDR      r0,[sp,#4]
        0x00000d30:    0840        @.      LSRS     r0,r0,#1
        0x00000d32:    b002        ..      ADD      sp,sp,#8
        0x00000d34:    bd80        ..      POP      {r7,pc}
        0x00000d36:    0000        ..      MOVS     r0,r0
    CLK_SetHCLK
        0x00000d38:    b580        ..      PUSH     {r7,lr}
        0x00000d3a:    b084        ..      SUB      sp,sp,#0x10
        0x00000d3c:    9003        ..      STR      r0,[sp,#0xc]
        0x00000d3e:    9102        ..      STR      r1,[sp,#8]
        0x00000d40:    f2402050    @.P     MOVW     r0,#0x250
        0x00000d44:    f2c40000    ....    MOVT     r0,#0x4000
        0x00000d48:    6800        .h      LDR      r0,[r0,#0]
        0x00000d4a:    f0000010    ....    AND      r0,r0,#0x10
        0x00000d4e:    9001        ..      STR      r0,[sp,#4]
        0x00000d50:    f2402100    @..!    MOVW     r1,#0x200
        0x00000d54:    f2c40100    ....    MOVT     r1,#0x4000
        0x00000d58:    6808        .h      LDR      r0,[r1,#0]
        0x00000d5a:    f0400004    @...    ORR      r0,r0,#4
        0x00000d5e:    6008        .`      STR      r0,[r1,#0]
        0x00000d60:    2010        .       MOVS     r0,#0x10
        0x00000d62:    f000f87b    ..{.    BL       CLK_WaitClockReady ; 0xe5c
        0x00000d66:    f2402110    @..!    MOVW     r1,#0x210
        0x00000d6a:    f2c40100    ....    MOVT     r1,#0x4000
        0x00000d6e:    6808        .h      LDR      r0,[r1,#0]
        0x00000d70:    f0400007    @...    ORR      r0,r0,#7
        0x00000d74:    6008        .`      STR      r0,[r1,#0]
        0x00000d76:    f2402220    @. "    MOVW     r2,#0x220
        0x00000d7a:    f2c40200    ....    MOVT     r2,#0x4000
        0x00000d7e:    6810        .h      LDR      r0,[r2,#0]
        0x00000d80:    f020000f     ...    BIC      r0,r0,#0xf
        0x00000d84:    9b02        ..      LDR      r3,[sp,#8]
        0x00000d86:    4318        .C      ORRS     r0,r0,r3
        0x00000d88:    6010        .`      STR      r0,[r2,#0]
        0x00000d8a:    6808        .h      LDR      r0,[r1,#0]
        0x00000d8c:    f0200007     ...    BIC      r0,r0,#7
        0x00000d90:    9a03        ..      LDR      r2,[sp,#0xc]
        0x00000d92:    4310        .C      ORRS     r0,r0,r2
        0x00000d94:    6008        .`      STR      r0,[r1,#0]
        0x00000d96:    f000fde7    ....    BL       SystemCoreClockUpdate ; 0x1968
        0x00000d9a:    9801        ..      LDR      r0,[sp,#4]
        0x00000d9c:    b948        H.      CBNZ     r0,0xdb2 ; CLK_SetHCLK + 122
        0x00000d9e:    e7ff        ..      B        0xda0 ; CLK_SetHCLK + 104
        0x00000da0:    f2402100    @..!    MOVW     r1,#0x200
        0x00000da4:    f2c40100    ....    MOVT     r1,#0x4000
        0x00000da8:    6808        .h      LDR      r0,[r1,#0]
        0x00000daa:    f0200004     ...    BIC      r0,r0,#4
        0x00000dae:    6008        .`      STR      r0,[r1,#0]
        0x00000db0:    e7ff        ..      B        0xdb2 ; CLK_SetHCLK + 122
        0x00000db2:    b004        ..      ADD      sp,sp,#0x10
        0x00000db4:    bd80        ..      POP      {r7,pc}
        0x00000db6:    0000        ..      MOVS     r0,r0
    CLK_SetModuleClock
        0x00000db8:    b085        ..      SUB      sp,sp,#0x14
        0x00000dba:    9004        ..      STR      r0,[sp,#0x10]
        0x00000dbc:    9103        ..      STR      r1,[sp,#0xc]
        0x00000dbe:    9202        ..      STR      r2,[sp,#8]
        0x00000dc0:    2000        .       MOVS     r0,#0
        0x00000dc2:    9001        ..      STR      r0,[sp,#4]
        0x00000dc4:    9000        ..      STR      r0,[sp,#0]
        0x00000dc6:    9804        ..      LDR      r0,[sp,#0x10]
        0x00000dc8:    0a80        ..      LSRS     r0,r0,#10
        0x00000dca:    0600        ..      LSLS     r0,r0,#24
        0x00000dcc:    b1c0        ..      CBZ      r0,0xe00 ; CLK_SetModuleClock + 72
        0x00000dce:    e7ff        ..      B        0xdd0 ; CLK_SetModuleClock + 24
        0x00000dd0:    f8bd0012    ....    LDRH     r0,[sp,#0x12]
        0x00000dd4:    f000000c    ....    AND      r0,r0,#0xc
        0x00000dd8:    f2402120    @. !    MOVW     r1,#0x220
        0x00000ddc:    f2c40100    ....    MOVT     r1,#0x4000
        0x00000de0:    4308        .C      ORRS     r0,r0,r1
        0x00000de2:    9000        ..      STR      r0,[sp,#0]
        0x00000de4:    9800        ..      LDR      r0,[sp,#0]
        0x00000de6:    6800        .h      LDR      r0,[r0,#0]
        0x00000de8:    9a04        ..      LDR      r2,[sp,#0x10]
        0x00000dea:    f3c22187    ...!    UBFX     r1,r2,#10,#8
        0x00000dee:    f3c21244    ..D.    UBFX     r2,r2,#5,#5
        0x00000df2:    4091        .@      LSLS     r1,r1,r2
        0x00000df4:    4388        .C      BICS     r0,r0,r1
        0x00000df6:    9902        ..      LDR      r1,[sp,#8]
        0x00000df8:    4308        .C      ORRS     r0,r0,r1
        0x00000dfa:    9900        ..      LDR      r1,[sp,#0]
        0x00000dfc:    6008        .`      STR      r0,[r1,#0]
        0x00000dfe:    e7ff        ..      B        0xe00 ; CLK_SetModuleClock + 72
        0x00000e00:    9804        ..      LDR      r0,[sp,#0x10]
        0x00000e02:    0e40        @.      LSRS     r0,r0,#25
        0x00000e04:    0740        @.      LSLS     r0,r0,#29
        0x00000e06:    b1c0        ..      CBZ      r0,0xe3a ; CLK_SetModuleClock + 130
        0x00000e08:    e7ff        ..      B        0xe0a ; CLK_SetModuleClock + 82
        0x00000e0a:    9904        ..      LDR      r1,[sp,#0x10]
        0x00000e0c:    200c        .       MOVS     r0,#0xc
        0x00000e0e:    ea006091    ...`    AND      r0,r0,r1,LSR #26
        0x00000e12:    f2402110    @..!    MOVW     r1,#0x210
        0x00000e16:    f2c40100    ....    MOVT     r1,#0x4000
        0x00000e1a:    4308        .C      ORRS     r0,r0,r1
        0x00000e1c:    9001        ..      STR      r0,[sp,#4]
        0x00000e1e:    9801        ..      LDR      r0,[sp,#4]
        0x00000e20:    6800        .h      LDR      r0,[r0,#0]
        0x00000e22:    9a04        ..      LDR      r2,[sp,#0x10]
        0x00000e24:    f3c26142    ..Ba    UBFX     r1,r2,#25,#3
        0x00000e28:    f3c25204    ...R    UBFX     r2,r2,#20,#5
        0x00000e2c:    4091        .@      LSLS     r1,r1,r2
        0x00000e2e:    4388        .C      BICS     r0,r0,r1
        0x00000e30:    9903        ..      LDR      r1,[sp,#0xc]
        0x00000e32:    4308        .C      ORRS     r0,r0,r1
        0x00000e34:    9901        ..      LDR      r1,[sp,#4]
        0x00000e36:    6008        .`      STR      r0,[r1,#0]
        0x00000e38:    e7ff        ..      B        0xe3a ; CLK_SetModuleClock + 130
        0x00000e3a:    b005        ..      ADD      sp,sp,#0x14
        0x00000e3c:    4770        pG      BX       lr
        0x00000e3e:    0000        ..      MOVS     r0,r0
    CLK_SetSysTickClockSrc
        0x00000e40:    b081        ..      SUB      sp,sp,#4
        0x00000e42:    9000        ..      STR      r0,[sp,#0]
        0x00000e44:    f2402110    @..!    MOVW     r1,#0x210
        0x00000e48:    f2c40100    ....    MOVT     r1,#0x4000
        0x00000e4c:    6808        .h      LDR      r0,[r1,#0]
        0x00000e4e:    f0200038     .8.    BIC      r0,r0,#0x38
        0x00000e52:    9a00        ..      LDR      r2,[sp,#0]
        0x00000e54:    4310        .C      ORRS     r0,r0,r2
        0x00000e56:    6008        .`      STR      r0,[r1,#0]
        0x00000e58:    b001        ..      ADD      sp,sp,#4
        0x00000e5a:    4770        pG      BX       lr
    CLK_WaitClockReady
        0x00000e5c:    b083        ..      SUB      sp,sp,#0xc
        0x00000e5e:    9001        ..      STR      r0,[sp,#4]
        0x00000e60:    f2400008    @...    MOVW     r0,#8
        0x00000e64:    f2c20000    ....    MOVT     r0,#0x2000
        0x00000e68:    6800        .h      LDR      r0,[r0,#0]
        0x00000e6a:    0840        @.      LSRS     r0,r0,#1
        0x00000e6c:    9000        ..      STR      r0,[sp,#0]
        0x00000e6e:    e7ff        ..      B        0xe70 ; CLK_WaitClockReady + 20
        0x00000e70:    f2402050    @.P     MOVW     r0,#0x250
        0x00000e74:    f2c40000    ....    MOVT     r0,#0x4000
        0x00000e78:    6800        .h      LDR      r0,[r0,#0]
        0x00000e7a:    9901        ..      LDR      r1,[sp,#4]
        0x00000e7c:    4008        .@      ANDS     r0,r0,r1
        0x00000e7e:    4288        .B      CMP      r0,r1
        0x00000e80:    d00a        ..      BEQ      0xe98 ; CLK_WaitClockReady + 60
        0x00000e82:    e7ff        ..      B        0xe84 ; CLK_WaitClockReady + 40
        0x00000e84:    9800        ..      LDR      r0,[sp,#0]
        0x00000e86:    1e41        A.      SUBS     r1,r0,#1
        0x00000e88:    9100        ..      STR      r1,[sp,#0]
        0x00000e8a:    2800        .(      CMP      r0,#0
        0x00000e8c:    dc03        ..      BGT      0xe96 ; CLK_WaitClockReady + 58
        0x00000e8e:    e7ff        ..      B        0xe90 ; CLK_WaitClockReady + 52
        0x00000e90:    2000        .       MOVS     r0,#0
        0x00000e92:    9002        ..      STR      r0,[sp,#8]
        0x00000e94:    e003        ..      B        0xe9e ; CLK_WaitClockReady + 66
        0x00000e96:    e7eb        ..      B        0xe70 ; CLK_WaitClockReady + 20
        0x00000e98:    2001        .       MOVS     r0,#1
        0x00000e9a:    9002        ..      STR      r0,[sp,#8]
        0x00000e9c:    e7ff        ..      B        0xe9e ; CLK_WaitClockReady + 66
        0x00000e9e:    9802        ..      LDR      r0,[sp,#8]
        0x00000ea0:    b003        ..      ADD      sp,sp,#0xc
        0x00000ea2:    4770        pG      BX       lr
    EADC_ConfigSampleModule
        0x00000ea4:    b084        ..      SUB      sp,sp,#0x10
        0x00000ea6:    9003        ..      STR      r0,[sp,#0xc]
        0x00000ea8:    9102        ..      STR      r1,[sp,#8]
        0x00000eaa:    9201        ..      STR      r2,[sp,#4]
        0x00000eac:    9300        ..      STR      r3,[sp,#0]
        0x00000eae:    9803        ..      LDR      r0,[sp,#0xc]
        0x00000eb0:    9902        ..      LDR      r1,[sp,#8]
        0x00000eb2:    eb000181    ....    ADD      r1,r0,r1,LSL #2
        0x00000eb6:    f8d10080    ....    LDR      r0,[r1,#0x80]
        0x00000eba:    f64f72c0    O..r    MOV      r2,#0xffc0
        0x00000ebe:    f6cf72e0    ...r    MOVT     r2,#0xffe0
        0x00000ec2:    4010        .@      ANDS     r0,r0,r2
        0x00000ec4:    f8c10080    ....    STR      r0,[r1,#0x80]
        0x00000ec8:    9801        ..      LDR      r0,[sp,#4]
        0x00000eca:    9900        ..      LDR      r1,[sp,#0]
        0x00000ecc:    ea400201    @...    ORR      r2,r0,r1
        0x00000ed0:    9803        ..      LDR      r0,[sp,#0xc]
        0x00000ed2:    9902        ..      LDR      r1,[sp,#8]
        0x00000ed4:    eb000181    ....    ADD      r1,r0,r1,LSL #2
        0x00000ed8:    f8d10080    ....    LDR      r0,[r1,#0x80]
        0x00000edc:    4310        .C      ORRS     r0,r0,r2
        0x00000ede:    f8c10080    ....    STR      r0,[r1,#0x80]
        0x00000ee2:    b004        ..      ADD      sp,sp,#0x10
        0x00000ee4:    4770        pG      BX       lr
        0x00000ee6:    0000        ..      MOVS     r0,r0
    EADC_Open
        0x00000ee8:    b082        ..      SUB      sp,sp,#8
        0x00000eea:    9001        ..      STR      r0,[sp,#4]
        0x00000eec:    9100        ..      STR      r1,[sp,#0]
        0x00000eee:    9901        ..      LDR      r1,[sp,#4]
        0x00000ef0:    6d08        .m      LDR      r0,[r1,#0x50]
        0x00000ef2:    f4207080     ..p    BIC      r0,r0,#0x100
        0x00000ef6:    6508        .e      STR      r0,[r1,#0x50]
        0x00000ef8:    9800        ..      LDR      r0,[sp,#0]
        0x00000efa:    9901        ..      LDR      r1,[sp,#4]
        0x00000efc:    6d0a        .m      LDR      r2,[r1,#0x50]
        0x00000efe:    4310        .C      ORRS     r0,r0,r2
        0x00000f00:    f0400001    @...    ORR      r0,r0,#1
        0x00000f04:    6508        .e      STR      r0,[r1,#0x50]
        0x00000f06:    b002        ..      ADD      sp,sp,#8
        0x00000f08:    4770        pG      BX       lr
        0x00000f0a:    0000        ..      MOVS     r0,r0
    EADC_SetInternalSampleTime
        0x00000f0c:    b082        ..      SUB      sp,sp,#8
        0x00000f0e:    9001        ..      STR      r0,[sp,#4]
        0x00000f10:    9100        ..      STR      r1,[sp,#0]
        0x00000f12:    9901        ..      LDR      r1,[sp,#4]
        0x00000f14:    6d08        .m      LDR      r0,[r1,#0x50]
        0x00000f16:    f42020e0     ..     BIC      r0,r0,#0x70000
        0x00000f1a:    6508        .e      STR      r0,[r1,#0x50]
        0x00000f1c:    9900        ..      LDR      r1,[sp,#0]
        0x00000f1e:    2000        .       MOVS     r0,#0
        0x00000f20:    f6cf70ff    ...p    MOVT     r0,#0xffff
        0x00000f24:    eb004201    ...B    ADD      r2,r0,r1,LSL #16
        0x00000f28:    9901        ..      LDR      r1,[sp,#4]
        0x00000f2a:    6d08        .m      LDR      r0,[r1,#0x50]
        0x00000f2c:    4310        .C      ORRS     r0,r0,r2
        0x00000f2e:    6508        .e      STR      r0,[r1,#0x50]
        0x00000f30:    b002        ..      ADD      sp,sp,#8
        0x00000f32:    4770        pG      BX       lr
    EINT5_IRQHandler
        0x00000f34:    b580        ..      PUSH     {r7,lr}
        0x00000f36:    f2441060    D.`.    MOV      r0,#0x4160
        0x00000f3a:    f2c40000    ....    MOVT     r0,#0x4000
        0x00000f3e:    6800        .h      LDR      r0,[r0,#0]
        0x00000f40:    07c0        ..      LSLS     r0,r0,#31
        0x00000f42:    b148        H.      CBZ      r0,0xf58 ; EINT5_IRQHandler + 36
        0x00000f44:    e7ff        ..      B        0xf46 ; EINT5_IRQHandler + 18
        0x00000f46:    f2441160    D.`.    MOV      r1,#0x4160
        0x00000f4a:    f2c40100    ....    MOVT     r1,#0x4000
        0x00000f4e:    2001        .       MOVS     r0,#1
        0x00000f50:    6008        .`      STR      r0,[r1,#0]
        0x00000f52:    f000fc3b    ..;.    BL       SYS_ResetChip ; 0x17cc
        0x00000f56:    e7ff        ..      B        0xf58 ; EINT5_IRQHandler + 36
        0x00000f58:    bd80        ..      POP      {r7,pc}
        0x00000f5a:    0000        ..      MOVS     r0,r0
    FMC_Close
        0x00000f5c:    f24c0100    L...    MOVW     r1,#0xc000
        0x00000f60:    f2c40100    ....    MOVT     r1,#0x4000
        0x00000f64:    6808        .h      LDR      r0,[r1,#0]
        0x00000f66:    f0200001     ...    BIC      r0,r0,#1
        0x00000f6a:    6008        .`      STR      r0,[r1,#0]
        0x00000f6c:    4770        pG      BX       lr
        0x00000f6e:    0000        ..      MOVS     r0,r0
    FMC_EnableConfigUpdate
        0x00000f70:    f24c0100    L...    MOVW     r1,#0xc000
        0x00000f74:    f2c40100    ....    MOVT     r1,#0x4000
        0x00000f78:    6808        .h      LDR      r0,[r1,#0]
        0x00000f7a:    f0400010    @...    ORR      r0,r0,#0x10
        0x00000f7e:    6008        .`      STR      r0,[r1,#0]
        0x00000f80:    4770        pG      BX       lr
        0x00000f82:    0000        ..      MOVS     r0,r0
    FMC_Erase
        0x00000f84:    b083        ..      SUB      sp,sp,#0xc
        0x00000f86:    9002        ..      STR      r0,[sp,#8]
        0x00000f88:    2000        .       MOVS     r0,#0
        0x00000f8a:    9001        ..      STR      r0,[sp,#4]
        0x00000f8c:    f2401104    @...    MOVW     r1,#0x104
        0x00000f90:    f2c20100    ....    MOVT     r1,#0x2000
        0x00000f94:    6008        .`      STR      r0,[r1,#0]
        0x00000f96:    f24c010c    L...    MOV      r1,#0xc00c
        0x00000f9a:    f2c40100    ....    MOVT     r1,#0x4000
        0x00000f9e:    2022        "       MOVS     r0,#0x22
        0x00000fa0:    6008        .`      STR      r0,[r1,#0]
        0x00000fa2:    9802        ..      LDR      r0,[sp,#8]
        0x00000fa4:    f24c0104    L...    MOV      r1,#0xc004
        0x00000fa8:    f2c40100    ....    MOVT     r1,#0x4000
        0x00000fac:    6008        .`      STR      r0,[r1,#0]
        0x00000fae:    f24c0110    L...    MOV      r1,#0xc010
        0x00000fb2:    f2c40100    ....    MOVT     r1,#0x4000
        0x00000fb6:    2001        .       MOVS     r0,#1
        0x00000fb8:    6008        .`      STR      r0,[r1,#0]
        0x00000fba:    f2400008    @...    MOVW     r0,#8
        0x00000fbe:    f2c20000    ....    MOVT     r0,#0x2000
        0x00000fc2:    6800        .h      LDR      r0,[r0,#0]
        0x00000fc4:    0880        ..      LSRS     r0,r0,#2
        0x00000fc6:    9000        ..      STR      r0,[sp,#0]
        0x00000fc8:    e7ff        ..      B        0xfca ; FMC_Erase + 70
        0x00000fca:    f24c0010    L...    MOV      r0,#0xc010
        0x00000fce:    f2c40000    ....    MOVT     r0,#0x4000
        0x00000fd2:    6800        .h      LDR      r0,[r0,#0]
        0x00000fd4:    b178        x.      CBZ      r0,0xff6 ; FMC_Erase + 114
        0x00000fd6:    e7ff        ..      B        0xfd8 ; FMC_Erase + 84
        0x00000fd8:    9800        ..      LDR      r0,[sp,#0]
        0x00000fda:    3801        .8      SUBS     r0,#1
        0x00000fdc:    9000        ..      STR      r0,[sp,#0]
        0x00000fde:    b948        H.      CBNZ     r0,0xff4 ; FMC_Erase + 112
        0x00000fe0:    e7ff        ..      B        0xfe2 ; FMC_Erase + 94
        0x00000fe2:    f2401104    @...    MOVW     r1,#0x104
        0x00000fe6:    f2c20100    ....    MOVT     r1,#0x2000
        0x00000fea:    f04f30ff    O..0    MOV      r0,#0xffffffff
        0x00000fee:    6008        .`      STR      r0,[r1,#0]
        0x00000ff0:    9001        ..      STR      r0,[sp,#4]
        0x00000ff2:    e7ff        ..      B        0xff4 ; FMC_Erase + 112
        0x00000ff4:    e7e9        ..      B        0xfca ; FMC_Erase + 70
        0x00000ff6:    f24c0000    L...    MOVW     r0,#0xc000
        0x00000ffa:    f2c40000    ....    MOVT     r0,#0x4000
        0x00000ffe:    6800        .h      LDR      r0,[r0,#0]
        0x00001000:    0640        @.      LSLS     r0,r0,#25
        0x00001002:    2800        .(      CMP      r0,#0
        0x00001004:    d511        ..      BPL      0x102a ; FMC_Erase + 166
        0x00001006:    e7ff        ..      B        0x1008 ; FMC_Erase + 132
        0x00001008:    f24c0100    L...    MOVW     r1,#0xc000
        0x0000100c:    f2c40100    ....    MOVT     r1,#0x4000
        0x00001010:    6808        .h      LDR      r0,[r1,#0]
        0x00001012:    f0400040    @.@.    ORR      r0,r0,#0x40
        0x00001016:    6008        .`      STR      r0,[r1,#0]
        0x00001018:    f2401104    @...    MOVW     r1,#0x104
        0x0000101c:    f2c20100    ....    MOVT     r1,#0x2000
        0x00001020:    f04f30ff    O..0    MOV      r0,#0xffffffff
        0x00001024:    6008        .`      STR      r0,[r1,#0]
        0x00001026:    9001        ..      STR      r0,[sp,#4]
        0x00001028:    e7ff        ..      B        0x102a ; FMC_Erase + 166
        0x0000102a:    9801        ..      LDR      r0,[sp,#4]
        0x0000102c:    b003        ..      ADD      sp,sp,#0xc
        0x0000102e:    4770        pG      BX       lr
    FMC_GetBootSource
        0x00001030:    b081        ..      SUB      sp,sp,#4
        0x00001032:    f24c0000    L...    MOVW     r0,#0xc000
        0x00001036:    f2c40000    ....    MOVT     r0,#0x4000
        0x0000103a:    6800        .h      LDR      r0,[r0,#0]
        0x0000103c:    0780        ..      LSLS     r0,r0,#30
        0x0000103e:    2800        .(      CMP      r0,#0
        0x00001040:    d503        ..      BPL      0x104a ; FMC_GetBootSource + 26
        0x00001042:    e7ff        ..      B        0x1044 ; FMC_GetBootSource + 20
        0x00001044:    2001        .       MOVS     r0,#1
        0x00001046:    9000        ..      STR      r0,[sp,#0]
        0x00001048:    e002        ..      B        0x1050 ; FMC_GetBootSource + 32
        0x0000104a:    2000        .       MOVS     r0,#0
        0x0000104c:    9000        ..      STR      r0,[sp,#0]
        0x0000104e:    e7ff        ..      B        0x1050 ; FMC_GetBootSource + 32
        0x00001050:    9800        ..      LDR      r0,[sp,#0]
        0x00001052:    b001        ..      ADD      sp,sp,#4
        0x00001054:    4770        pG      BX       lr
        0x00001056:    0000        ..      MOVS     r0,r0
    FMC_Open
        0x00001058:    f24c0100    L...    MOVW     r1,#0xc000
        0x0000105c:    f2c40100    ....    MOVT     r1,#0x4000
        0x00001060:    6808        .h      LDR      r0,[r1,#0]
        0x00001062:    f0400001    @...    ORR      r0,r0,#1
        0x00001066:    6008        .`      STR      r0,[r1,#0]
        0x00001068:    4770        pG      BX       lr
        0x0000106a:    0000        ..      MOVS     r0,r0
    FMC_Read
        0x0000106c:    b083        ..      SUB      sp,sp,#0xc
        0x0000106e:    9001        ..      STR      r0,[sp,#4]
        0x00001070:    f2401104    @...    MOVW     r1,#0x104
        0x00001074:    f2c20100    ....    MOVT     r1,#0x2000
        0x00001078:    2000        .       MOVS     r0,#0
        0x0000107a:    6008        .`      STR      r0,[r1,#0]
        0x0000107c:    f24c010c    L...    MOV      r1,#0xc00c
        0x00001080:    f2c40100    ....    MOVT     r1,#0x4000
        0x00001084:    6008        .`      STR      r0,[r1,#0]
        0x00001086:    9901        ..      LDR      r1,[sp,#4]
        0x00001088:    f24c0204    L...    MOV      r2,#0xc004
        0x0000108c:    f2c40200    ....    MOVT     r2,#0x4000
        0x00001090:    6011        .`      STR      r1,[r2,#0]
        0x00001092:    f24c0108    L...    MOV      r1,#0xc008
        0x00001096:    f2c40100    ....    MOVT     r1,#0x4000
        0x0000109a:    6008        .`      STR      r0,[r1,#0]
        0x0000109c:    f24c0110    L...    MOV      r1,#0xc010
        0x000010a0:    f2c40100    ....    MOVT     r1,#0x4000
        0x000010a4:    2001        .       MOVS     r0,#1
        0x000010a6:    6008        .`      STR      r0,[r1,#0]
        0x000010a8:    f2400008    @...    MOVW     r0,#8
        0x000010ac:    f2c20000    ....    MOVT     r0,#0x2000
        0x000010b0:    6800        .h      LDR      r0,[r0,#0]
        0x000010b2:    08c0        ..      LSRS     r0,r0,#3
        0x000010b4:    9000        ..      STR      r0,[sp,#0]
        0x000010b6:    e7ff        ..      B        0x10b8 ; FMC_Read + 76
        0x000010b8:    f24c0010    L...    MOV      r0,#0xc010
        0x000010bc:    f2c40000    ....    MOVT     r0,#0x4000
        0x000010c0:    6800        .h      LDR      r0,[r0,#0]
        0x000010c2:    b178        x.      CBZ      r0,0x10e4 ; FMC_Read + 120
        0x000010c4:    e7ff        ..      B        0x10c6 ; FMC_Read + 90
        0x000010c6:    9800        ..      LDR      r0,[sp,#0]
        0x000010c8:    3801        .8      SUBS     r0,#1
        0x000010ca:    9000        ..      STR      r0,[sp,#0]
        0x000010cc:    b948        H.      CBNZ     r0,0x10e2 ; FMC_Read + 118
        0x000010ce:    e7ff        ..      B        0x10d0 ; FMC_Read + 100
        0x000010d0:    f2401104    @...    MOVW     r1,#0x104
        0x000010d4:    f2c20100    ....    MOVT     r1,#0x2000
        0x000010d8:    f04f30ff    O..0    MOV      r0,#0xffffffff
        0x000010dc:    6008        .`      STR      r0,[r1,#0]
        0x000010de:    9002        ..      STR      r0,[sp,#8]
        0x000010e0:    e007        ..      B        0x10f2 ; FMC_Read + 134
        0x000010e2:    e7e9        ..      B        0x10b8 ; FMC_Read + 76
        0x000010e4:    f24c0008    L...    MOV      r0,#0xc008
        0x000010e8:    f2c40000    ....    MOVT     r0,#0x4000
        0x000010ec:    6800        .h      LDR      r0,[r0,#0]
        0x000010ee:    9002        ..      STR      r0,[sp,#8]
        0x000010f0:    e7ff        ..      B        0x10f2 ; FMC_Read + 134
        0x000010f2:    9802        ..      LDR      r0,[sp,#8]
        0x000010f4:    b003        ..      ADD      sp,sp,#0xc
        0x000010f6:    4770        pG      BX       lr
    FMC_Read
        0x000010f8:    b083        ..      SUB      sp,sp,#0xc
        0x000010fa:    9001        ..      STR      r0,[sp,#4]
        0x000010fc:    f2401104    @...    MOVW     r1,#0x104
        0x00001100:    f2c20100    ....    MOVT     r1,#0x2000
        0x00001104:    2000        .       MOVS     r0,#0
        0x00001106:    6008        .`      STR      r0,[r1,#0]
        0x00001108:    f24c010c    L...    MOV      r1,#0xc00c
        0x0000110c:    f2c40100    ....    MOVT     r1,#0x4000
        0x00001110:    6008        .`      STR      r0,[r1,#0]
        0x00001112:    9901        ..      LDR      r1,[sp,#4]
        0x00001114:    f24c0204    L...    MOV      r2,#0xc004
        0x00001118:    f2c40200    ....    MOVT     r2,#0x4000
        0x0000111c:    6011        .`      STR      r1,[r2,#0]
        0x0000111e:    f24c0108    L...    MOV      r1,#0xc008
        0x00001122:    f2c40100    ....    MOVT     r1,#0x4000
        0x00001126:    6008        .`      STR      r0,[r1,#0]
        0x00001128:    f24c0110    L...    MOV      r1,#0xc010
        0x0000112c:    f2c40100    ....    MOVT     r1,#0x4000
        0x00001130:    2001        .       MOVS     r0,#1
        0x00001132:    6008        .`      STR      r0,[r1,#0]
        0x00001134:    f2400008    @...    MOVW     r0,#8
        0x00001138:    f2c20000    ....    MOVT     r0,#0x2000
        0x0000113c:    6800        .h      LDR      r0,[r0,#0]
        0x0000113e:    08c0        ..      LSRS     r0,r0,#3
        0x00001140:    9000        ..      STR      r0,[sp,#0]
        0x00001142:    e7ff        ..      B        0x1144 ; FMC_Read + 76
        0x00001144:    f24c0010    L...    MOV      r0,#0xc010
        0x00001148:    f2c40000    ....    MOVT     r0,#0x4000
        0x0000114c:    6800        .h      LDR      r0,[r0,#0]
        0x0000114e:    b178        x.      CBZ      r0,0x1170 ; FMC_Read + 120
        0x00001150:    e7ff        ..      B        0x1152 ; FMC_Read + 90
        0x00001152:    9800        ..      LDR      r0,[sp,#0]
        0x00001154:    3801        .8      SUBS     r0,#1
        0x00001156:    9000        ..      STR      r0,[sp,#0]
        0x00001158:    b948        H.      CBNZ     r0,0x116e ; FMC_Read + 118
        0x0000115a:    e7ff        ..      B        0x115c ; FMC_Read + 100
        0x0000115c:    f2401104    @...    MOVW     r1,#0x104
        0x00001160:    f2c20100    ....    MOVT     r1,#0x2000
        0x00001164:    f04f30ff    O..0    MOV      r0,#0xffffffff
        0x00001168:    6008        .`      STR      r0,[r1,#0]
        0x0000116a:    9002        ..      STR      r0,[sp,#8]
        0x0000116c:    e007        ..      B        0x117e ; FMC_Read + 134
        0x0000116e:    e7e9        ..      B        0x1144 ; FMC_Read + 76
        0x00001170:    f24c0008    L...    MOV      r0,#0xc008
        0x00001174:    f2c40000    ....    MOVT     r0,#0x4000
        0x00001178:    6800        .h      LDR      r0,[r0,#0]
        0x0000117a:    9002        ..      STR      r0,[sp,#8]
        0x0000117c:    e7ff        ..      B        0x117e ; FMC_Read + 134
        0x0000117e:    9802        ..      LDR      r0,[sp,#8]
        0x00001180:    b003        ..      ADD      sp,sp,#0xc
        0x00001182:    4770        pG      BX       lr
    FMC_ReadConfig
        0x00001184:    b580        ..      PUSH     {r7,lr}
        0x00001186:    b084        ..      SUB      sp,sp,#0x10
        0x00001188:    9003        ..      STR      r0,[sp,#0xc]
        0x0000118a:    9102        ..      STR      r1,[sp,#8]
        0x0000118c:    2000        .       MOVS     r0,#0
        0x0000118e:    9000        ..      STR      r0,[sp,#0]
        0x00001190:    f2401104    @...    MOVW     r1,#0x104
        0x00001194:    f2c20100    ....    MOVT     r1,#0x2000
        0x00001198:    6008        .`      STR      r0,[r1,#0]
        0x0000119a:    9001        ..      STR      r0,[sp,#4]
        0x0000119c:    e7ff        ..      B        0x119e ; FMC_ReadConfig + 26
        0x0000119e:    9801        ..      LDR      r0,[sp,#4]
        0x000011a0:    9902        ..      LDR      r1,[sp,#8]
        0x000011a2:    4288        .B      CMP      r0,r1
        0x000011a4:    d21b        ..      BCS      0x11de ; FMC_ReadConfig + 90
        0x000011a6:    e7ff        ..      B        0x11a8 ; FMC_ReadConfig + 36
        0x000011a8:    9901        ..      LDR      r1,[sp,#4]
        0x000011aa:    f44f1040    O.@.    MOV      r0,#0x300000
        0x000011ae:    eb000081    ....    ADD      r0,r0,r1,LSL #2
        0x000011b2:    f7ffffa1    ....    BL       FMC_Read ; 0x10f8
        0x000011b6:    9903        ..      LDR      r1,[sp,#0xc]
        0x000011b8:    9a01        ..      LDR      r2,[sp,#4]
        0x000011ba:    f8410022    A.".    STR      r0,[r1,r2,LSL #2]
        0x000011be:    f2401004    @...    MOVW     r0,#0x104
        0x000011c2:    f2c20000    ....    MOVT     r0,#0x2000
        0x000011c6:    6800        .h      LDR      r0,[r0,#0]
        0x000011c8:    b120         .      CBZ      r0,0x11d4 ; FMC_ReadConfig + 80
        0x000011ca:    e7ff        ..      B        0x11cc ; FMC_ReadConfig + 72
        0x000011cc:    f04f30ff    O..0    MOV      r0,#0xffffffff
        0x000011d0:    9000        ..      STR      r0,[sp,#0]
        0x000011d2:    e7ff        ..      B        0x11d4 ; FMC_ReadConfig + 80
        0x000011d4:    e7ff        ..      B        0x11d6 ; FMC_ReadConfig + 82
        0x000011d6:    9801        ..      LDR      r0,[sp,#4]
        0x000011d8:    3001        .0      ADDS     r0,#1
        0x000011da:    9001        ..      STR      r0,[sp,#4]
        0x000011dc:    e7df        ..      B        0x119e ; FMC_ReadConfig + 26
        0x000011de:    9800        ..      LDR      r0,[sp,#0]
        0x000011e0:    b004        ..      ADD      sp,sp,#0x10
        0x000011e2:    bd80        ..      POP      {r7,pc}
    FMC_Write
        0x000011e4:    b084        ..      SUB      sp,sp,#0x10
        0x000011e6:    9002        ..      STR      r0,[sp,#8]
        0x000011e8:    9101        ..      STR      r1,[sp,#4]
        0x000011ea:    f2401104    @...    MOVW     r1,#0x104
        0x000011ee:    f2c20100    ....    MOVT     r1,#0x2000
        0x000011f2:    2000        .       MOVS     r0,#0
        0x000011f4:    6008        .`      STR      r0,[r1,#0]
        0x000011f6:    f24c010c    L...    MOV      r1,#0xc00c
        0x000011fa:    f2c40100    ....    MOVT     r1,#0x4000
        0x000011fe:    2021        !       MOVS     r0,#0x21
        0x00001200:    6008        .`      STR      r0,[r1,#0]
        0x00001202:    9802        ..      LDR      r0,[sp,#8]
        0x00001204:    f24c0104    L...    MOV      r1,#0xc004
        0x00001208:    f2c40100    ....    MOVT     r1,#0x4000
        0x0000120c:    6008        .`      STR      r0,[r1,#0]
        0x0000120e:    9801        ..      LDR      r0,[sp,#4]
        0x00001210:    f24c0108    L...    MOV      r1,#0xc008
        0x00001214:    f2c40100    ....    MOVT     r1,#0x4000
        0x00001218:    6008        .`      STR      r0,[r1,#0]
        0x0000121a:    f24c0110    L...    MOV      r1,#0xc010
        0x0000121e:    f2c40100    ....    MOVT     r1,#0x4000
        0x00001222:    2001        .       MOVS     r0,#1
        0x00001224:    6008        .`      STR      r0,[r1,#0]
        0x00001226:    f2400008    @...    MOVW     r0,#8
        0x0000122a:    f2c20000    ....    MOVT     r0,#0x2000
        0x0000122e:    6800        .h      LDR      r0,[r0,#0]
        0x00001230:    08c0        ..      LSRS     r0,r0,#3
        0x00001232:    9000        ..      STR      r0,[sp,#0]
        0x00001234:    e7ff        ..      B        0x1236 ; FMC_Write + 82
        0x00001236:    f24c0010    L...    MOV      r0,#0xc010
        0x0000123a:    f2c40000    ....    MOVT     r0,#0x4000
        0x0000123e:    6800        .h      LDR      r0,[r0,#0]
        0x00001240:    b178        x.      CBZ      r0,0x1262 ; FMC_Write + 126
        0x00001242:    e7ff        ..      B        0x1244 ; FMC_Write + 96
        0x00001244:    9800        ..      LDR      r0,[sp,#0]
        0x00001246:    3801        .8      SUBS     r0,#1
        0x00001248:    9000        ..      STR      r0,[sp,#0]
        0x0000124a:    b948        H.      CBNZ     r0,0x1260 ; FMC_Write + 124
        0x0000124c:    e7ff        ..      B        0x124e ; FMC_Write + 106
        0x0000124e:    f2401104    @...    MOVW     r1,#0x104
        0x00001252:    f2c20100    ....    MOVT     r1,#0x2000
        0x00001256:    f04f30ff    O..0    MOV      r0,#0xffffffff
        0x0000125a:    6008        .`      STR      r0,[r1,#0]
        0x0000125c:    9003        ..      STR      r0,[sp,#0xc]
        0x0000125e:    e003        ..      B        0x1268 ; FMC_Write + 132
        0x00001260:    e7e9        ..      B        0x1236 ; FMC_Write + 82
        0x00001262:    2000        .       MOVS     r0,#0
        0x00001264:    9003        ..      STR      r0,[sp,#0xc]
        0x00001266:    e7ff        ..      B        0x1268 ; FMC_Write + 132
        0x00001268:    9803        ..      LDR      r0,[sp,#0xc]
        0x0000126a:    b004        ..      ADD      sp,sp,#0x10
        0x0000126c:    4770        pG      BX       lr
        0x0000126e:    0000        ..      MOVS     r0,r0
    FMC_Write
        0x00001270:    b084        ..      SUB      sp,sp,#0x10
        0x00001272:    9002        ..      STR      r0,[sp,#8]
        0x00001274:    9101        ..      STR      r1,[sp,#4]
        0x00001276:    f2401104    @...    MOVW     r1,#0x104
        0x0000127a:    f2c20100    ....    MOVT     r1,#0x2000
        0x0000127e:    2000        .       MOVS     r0,#0
        0x00001280:    6008        .`      STR      r0,[r1,#0]
        0x00001282:    f24c010c    L...    MOV      r1,#0xc00c
        0x00001286:    f2c40100    ....    MOVT     r1,#0x4000
        0x0000128a:    2021        !       MOVS     r0,#0x21
        0x0000128c:    6008        .`      STR      r0,[r1,#0]
        0x0000128e:    9802        ..      LDR      r0,[sp,#8]
        0x00001290:    f24c0104    L...    MOV      r1,#0xc004
        0x00001294:    f2c40100    ....    MOVT     r1,#0x4000
        0x00001298:    6008        .`      STR      r0,[r1,#0]
        0x0000129a:    9801        ..      LDR      r0,[sp,#4]
        0x0000129c:    f24c0108    L...    MOV      r1,#0xc008
        0x000012a0:    f2c40100    ....    MOVT     r1,#0x4000
        0x000012a4:    6008        .`      STR      r0,[r1,#0]
        0x000012a6:    f24c0110    L...    MOV      r1,#0xc010
        0x000012aa:    f2c40100    ....    MOVT     r1,#0x4000
        0x000012ae:    2001        .       MOVS     r0,#1
        0x000012b0:    6008        .`      STR      r0,[r1,#0]
        0x000012b2:    f2400008    @...    MOVW     r0,#8
        0x000012b6:    f2c20000    ....    MOVT     r0,#0x2000
        0x000012ba:    6800        .h      LDR      r0,[r0,#0]
        0x000012bc:    08c0        ..      LSRS     r0,r0,#3
        0x000012be:    9000        ..      STR      r0,[sp,#0]
        0x000012c0:    e7ff        ..      B        0x12c2 ; FMC_Write + 82
        0x000012c2:    f24c0010    L...    MOV      r0,#0xc010
        0x000012c6:    f2c40000    ....    MOVT     r0,#0x4000
        0x000012ca:    6800        .h      LDR      r0,[r0,#0]
        0x000012cc:    b178        x.      CBZ      r0,0x12ee ; FMC_Write + 126
        0x000012ce:    e7ff        ..      B        0x12d0 ; FMC_Write + 96
        0x000012d0:    9800        ..      LDR      r0,[sp,#0]
        0x000012d2:    3801        .8      SUBS     r0,#1
        0x000012d4:    9000        ..      STR      r0,[sp,#0]
        0x000012d6:    b948        H.      CBNZ     r0,0x12ec ; FMC_Write + 124
        0x000012d8:    e7ff        ..      B        0x12da ; FMC_Write + 106
        0x000012da:    f2401104    @...    MOVW     r1,#0x104
        0x000012de:    f2c20100    ....    MOVT     r1,#0x2000
        0x000012e2:    f04f30ff    O..0    MOV      r0,#0xffffffff
        0x000012e6:    6008        .`      STR      r0,[r1,#0]
        0x000012e8:    9003        ..      STR      r0,[sp,#0xc]
        0x000012ea:    e003        ..      B        0x12f4 ; FMC_Write + 132
        0x000012ec:    e7e9        ..      B        0x12c2 ; FMC_Write + 82
        0x000012ee:    2000        .       MOVS     r0,#0
        0x000012f0:    9003        ..      STR      r0,[sp,#0xc]
        0x000012f2:    e7ff        ..      B        0x12f4 ; FMC_Write + 132
        0x000012f4:    9803        ..      LDR      r0,[sp,#0xc]
        0x000012f6:    b004        ..      ADD      sp,sp,#0x10
        0x000012f8:    4770        pG      BX       lr
        0x000012fa:    0000        ..      MOVS     r0,r0
    FMC_WriteConfig
        0x000012fc:    b580        ..      PUSH     {r7,lr}
        0x000012fe:    b084        ..      SUB      sp,sp,#0x10
        0x00001300:    9003        ..      STR      r0,[sp,#0xc]
        0x00001302:    9102        ..      STR      r1,[sp,#8]
        0x00001304:    2000        .       MOVS     r0,#0
        0x00001306:    9000        ..      STR      r0,[sp,#0]
        0x00001308:    f2401104    @...    MOVW     r1,#0x104
        0x0000130c:    f2c20100    ....    MOVT     r1,#0x2000
        0x00001310:    6008        .`      STR      r0,[r1,#0]
        0x00001312:    9001        ..      STR      r0,[sp,#4]
        0x00001314:    e7ff        ..      B        0x1316 ; FMC_WriteConfig + 26
        0x00001316:    9801        ..      LDR      r0,[sp,#4]
        0x00001318:    9902        ..      LDR      r1,[sp,#8]
        0x0000131a:    4288        .B      CMP      r0,r1
        0x0000131c:    d237        7.      BCS      0x138e ; FMC_WriteConfig + 146
        0x0000131e:    e7ff        ..      B        0x1320 ; FMC_WriteConfig + 36
        0x00001320:    9a01        ..      LDR      r2,[sp,#4]
        0x00001322:    f44f1040    O.@.    MOV      r0,#0x300000
        0x00001326:    eb000082    ....    ADD      r0,r0,r2,LSL #2
        0x0000132a:    9903        ..      LDR      r1,[sp,#0xc]
        0x0000132c:    f8511022    Q.".    LDR      r1,[r1,r2,LSL #2]
        0x00001330:    f7ffff9e    ....    BL       FMC_Write ; 0x1270
        0x00001334:    f2401004    @...    MOVW     r0,#0x104
        0x00001338:    f2c20000    ....    MOVT     r0,#0x2000
        0x0000133c:    6800        .h      LDR      r0,[r0,#0]
        0x0000133e:    b120         .      CBZ      r0,0x134a ; FMC_WriteConfig + 78
        0x00001340:    e7ff        ..      B        0x1342 ; FMC_WriteConfig + 70
        0x00001342:    f04f30ff    O..0    MOV      r0,#0xffffffff
        0x00001346:    9000        ..      STR      r0,[sp,#0]
        0x00001348:    e7ff        ..      B        0x134a ; FMC_WriteConfig + 78
        0x0000134a:    9901        ..      LDR      r1,[sp,#4]
        0x0000134c:    f44f1040    O.@.    MOV      r0,#0x300000
        0x00001350:    eb000081    ....    ADD      r0,r0,r1,LSL #2
        0x00001354:    f7fffed0    ....    BL       FMC_Read ; 0x10f8
        0x00001358:    9903        ..      LDR      r1,[sp,#0xc]
        0x0000135a:    9a01        ..      LDR      r2,[sp,#4]
        0x0000135c:    f8511022    Q.".    LDR      r1,[r1,r2,LSL #2]
        0x00001360:    4288        .B      CMP      r0,r1
        0x00001362:    d004        ..      BEQ      0x136e ; FMC_WriteConfig + 114
        0x00001364:    e7ff        ..      B        0x1366 ; FMC_WriteConfig + 106
        0x00001366:    f04f30ff    O..0    MOV      r0,#0xffffffff
        0x0000136a:    9000        ..      STR      r0,[sp,#0]
        0x0000136c:    e7ff        ..      B        0x136e ; FMC_WriteConfig + 114
        0x0000136e:    f2401004    @...    MOVW     r0,#0x104
        0x00001372:    f2c20000    ....    MOVT     r0,#0x2000
        0x00001376:    6800        .h      LDR      r0,[r0,#0]
        0x00001378:    b120         .      CBZ      r0,0x1384 ; FMC_WriteConfig + 136
        0x0000137a:    e7ff        ..      B        0x137c ; FMC_WriteConfig + 128
        0x0000137c:    f04f30ff    O..0    MOV      r0,#0xffffffff
        0x00001380:    9000        ..      STR      r0,[sp,#0]
        0x00001382:    e7ff        ..      B        0x1384 ; FMC_WriteConfig + 136
        0x00001384:    e7ff        ..      B        0x1386 ; FMC_WriteConfig + 138
        0x00001386:    9801        ..      LDR      r0,[sp,#4]
        0x00001388:    3001        .0      ADDS     r0,#1
        0x0000138a:    9001        ..      STR      r0,[sp,#4]
        0x0000138c:    e7c3        ..      B        0x1316 ; FMC_WriteConfig + 26
        0x0000138e:    9800        ..      LDR      r0,[sp,#0]
        0x00001390:    b004        ..      ADD      sp,sp,#0x10
        0x00001392:    bd80        ..      POP      {r7,pc}
    GPIO_SetMode
        0x00001394:    b084        ..      SUB      sp,sp,#0x10
        0x00001396:    9003        ..      STR      r0,[sp,#0xc]
        0x00001398:    9102        ..      STR      r1,[sp,#8]
        0x0000139a:    9201        ..      STR      r2,[sp,#4]
        0x0000139c:    2000        .       MOVS     r0,#0
        0x0000139e:    9000        ..      STR      r0,[sp,#0]
        0x000013a0:    e7ff        ..      B        0x13a2 ; GPIO_SetMode + 14
        0x000013a2:    9800        ..      LDR      r0,[sp,#0]
        0x000013a4:    280f        .(      CMP      r0,#0xf
        0x000013a6:    d818        ..      BHI      0x13da ; GPIO_SetMode + 70
        0x000013a8:    e7ff        ..      B        0x13aa ; GPIO_SetMode + 22
        0x000013aa:    9802        ..      LDR      r0,[sp,#8]
        0x000013ac:    9900        ..      LDR      r1,[sp,#0]
        0x000013ae:    40c8        .@      LSRS     r0,r0,r1
        0x000013b0:    07c0        ..      LSLS     r0,r0,#31
        0x000013b2:    b168        h.      CBZ      r0,0x13d0 ; GPIO_SetMode + 60
        0x000013b4:    e7ff        ..      B        0x13b6 ; GPIO_SetMode + 34
        0x000013b6:    9803        ..      LDR      r0,[sp,#0xc]
        0x000013b8:    6800        .h      LDR      r0,[r0,#0]
        0x000013ba:    9900        ..      LDR      r1,[sp,#0]
        0x000013bc:    004a        J.      LSLS     r2,r1,#1
        0x000013be:    2103        .!      MOVS     r1,#3
        0x000013c0:    4091        .@      LSLS     r1,r1,r2
        0x000013c2:    4388        .C      BICS     r0,r0,r1
        0x000013c4:    9901        ..      LDR      r1,[sp,#4]
        0x000013c6:    4091        .@      LSLS     r1,r1,r2
        0x000013c8:    4308        .C      ORRS     r0,r0,r1
        0x000013ca:    9903        ..      LDR      r1,[sp,#0xc]
        0x000013cc:    6008        .`      STR      r0,[r1,#0]
        0x000013ce:    e7ff        ..      B        0x13d0 ; GPIO_SetMode + 60
        0x000013d0:    e7ff        ..      B        0x13d2 ; GPIO_SetMode + 62
        0x000013d2:    9800        ..      LDR      r0,[sp,#0]
        0x000013d4:    3001        .0      ADDS     r0,#1
        0x000013d6:    9000        ..      STR      r0,[sp,#0]
        0x000013d8:    e7e3        ..      B        0x13a2 ; GPIO_SetMode + 14
        0x000013da:    b004        ..      ADD      sp,sp,#0x10
        0x000013dc:    4770        pG      BX       lr
        0x000013de:    0000        ..      MOVS     r0,r0
    ProcessHardFault
        0x000013e0:    b580        ..      PUSH     {r7,lr}
        0x000013e2:    b090        ..      SUB      sp,sp,#0x40
        0x000013e4:    900f        ..      STR      r0,[sp,#0x3c]
        0x000013e6:    910e        ..      STR      r1,[sp,#0x38]
        0x000013e8:    920d        ..      STR      r2,[sp,#0x34]
        0x000013ea:    2000        .       MOVS     r0,#0
        0x000013ec:    900c        ..      STR      r0,[sp,#0x30]
        0x000013ee:    980f        ..      LDR      r0,[sp,#0x3c]
        0x000013f0:    f3c01080    ....    UBFX     r0,r0,#6,#1
        0x000013f4:    9007        ..      STR      r0,[sp,#0x1c]
        0x000013f6:    9807        ..      LDR      r0,[sp,#0x1c]
        0x000013f8:    b168        h.      CBZ      r0,0x1416 ; ProcessHardFault + 54
        0x000013fa:    e7ff        ..      B        0x13fc ; ProcessHardFault + 28
        0x000013fc:    f89d003c    ..<.    LDRB     r0,[sp,#0x3c]
        0x00001400:    0740        @.      LSLS     r0,r0,#29
        0x00001402:    2800        .(      CMP      r0,#0
        0x00001404:    d503        ..      BPL      0x140e ; ProcessHardFault + 46
        0x00001406:    e7ff        ..      B        0x1408 ; ProcessHardFault + 40
        0x00001408:    980d        ..      LDR      r0,[sp,#0x34]
        0x0000140a:    900c        ..      STR      r0,[sp,#0x30]
        0x0000140c:    e002        ..      B        0x1414 ; ProcessHardFault + 52
        0x0000140e:    980e        ..      LDR      r0,[sp,#0x38]
        0x00001410:    900c        ..      STR      r0,[sp,#0x30]
        0x00001412:    e7ff        ..      B        0x1414 ; ProcessHardFault + 52
        0x00001414:    e7ff        ..      B        0x1416 ; ProcessHardFault + 54
        0x00001416:    980c        ..      LDR      r0,[sp,#0x30]
        0x00001418:    6981        .i      LDR      r1,[r0,#0x18]
        0x0000141a:    f643607c    C.|`    MOV      r0,#0x3e7c
        0x0000141e:    f2c00000    ....    MOVT     r0,#0
        0x00001422:    f002f825    ..%.    BL       __0printf ; 0x3470
        0x00001426:    980c        ..      LDR      r0,[sp,#0x30]
        0x00001428:    b138        8.      CBZ      r0,0x143a ; ProcessHardFault + 90
        0x0000142a:    e7ff        ..      B        0x142c ; ProcessHardFault + 76
        0x0000142c:    980c        ..      LDR      r0,[sp,#0x30]
        0x0000142e:    6980        .i      LDR      r0,[r0,#0x18]
        0x00001430:    900a        ..      STR      r0,[sp,#0x28]
        0x00001432:    980a        ..      LDR      r0,[sp,#0x28]
        0x00001434:    8800        ..      LDRH     r0,[r0,#0]
        0x00001436:    900b        ..      STR      r0,[sp,#0x2c]
        0x00001438:    e7ff        ..      B        0x143a ; ProcessHardFault + 90
        0x0000143a:    f6435084    C..P    MOV      r0,#0x3d84
        0x0000143e:    f2c00000    ....    MOVT     r0,#0
        0x00001442:    f002f815    ....    BL       __0printf ; 0x3470
        0x00001446:    990b        ..      LDR      r1,[sp,#0x2c]
        0x00001448:    f64350f5    C..P    MOV      r0,#0x3df5
        0x0000144c:    f2c00000    ....    MOVT     r0,#0
        0x00001450:    f002f80e    ....    BL       __0printf ; 0x3470
        0x00001454:    980b        ..      LDR      r0,[sp,#0x2c]
        0x00001456:    f64b61ab    K..a    MOV      r1,#0xbeab
        0x0000145a:    4288        .B      CMP      r0,r1
        0x0000145c:    d107        ..      BNE      0x146e ; ProcessHardFault + 142
        0x0000145e:    e7ff        ..      B        0x1460 ; ProcessHardFault + 128
        0x00001460:    f64350b9    C..P    MOV      r0,#0x3db9
        0x00001464:    f2c00000    ....    MOVT     r0,#0
        0x00001468:    f002f802    ....    BL       __0printf ; 0x3470
        0x0000146c:    e11c        ..      B        0x16a8 ; ProcessHardFault + 712
        0x0000146e:    990b        ..      LDR      r1,[sp,#0x2c]
        0x00001470:    2005        .       MOVS     r0,#5
        0x00001472:    ebb03f11    ...?    CMP      r0,r1,LSR #12
        0x00001476:    d142        B.      BNE      0x14fe ; ProcessHardFault + 286
        0x00001478:    e7ff        ..      B        0x147a ; ProcessHardFault + 154
        0x0000147a:    980b        ..      LDR      r0,[sp,#0x2c]
        0x0000147c:    f3c01082    ....    UBFX     r0,r0,#6,#3
        0x00001480:    9006        ..      STR      r0,[sp,#0x18]
        0x00001482:    980b        ..      LDR      r0,[sp,#0x2c]
        0x00001484:    f3c000c2    ....    UBFX     r0,r0,#3,#3
        0x00001488:    9005        ..      STR      r0,[sp,#0x14]
        0x0000148a:    980b        ..      LDR      r0,[sp,#0x2c]
        0x0000148c:    f0000007    ....    AND      r0,r0,#7
        0x00001490:    9004        ..      STR      r0,[sp,#0x10]
        0x00001492:    9904        ..      LDR      r1,[sp,#0x10]
        0x00001494:    9a06        ..      LDR      r2,[sp,#0x18]
        0x00001496:    9b05        ..      LDR      r3,[sp,#0x14]
        0x00001498:    f6436061    C.a`    MOV      r0,#0x3e61
        0x0000149c:    f2c00000    ....    MOVT     r0,#0
        0x000014a0:    f001ffe6    ....    BL       __0printf ; 0x3470
        0x000014a4:    990c        ..      LDR      r1,[sp,#0x30]
        0x000014a6:    9805        ..      LDR      r0,[sp,#0x14]
        0x000014a8:    f8510020    Q. .    LDR      r0,[r1,r0,LSL #2]
        0x000014ac:    9a06        ..      LDR      r2,[sp,#0x18]
        0x000014ae:    f8511022    Q.".    LDR      r1,[r1,r2,LSL #2]
        0x000014b2:    4408        .D      ADD      r0,r0,r1
        0x000014b4:    9009        ..      STR      r0,[sp,#0x24]
        0x000014b6:    980c        ..      LDR      r0,[sp,#0x30]
        0x000014b8:    9904        ..      LDR      r1,[sp,#0x10]
        0x000014ba:    f8500021    P.!.    LDR      r0,[r0,r1,LSL #2]
        0x000014be:    9008        ..      STR      r0,[sp,#0x20]
        0x000014c0:    990a        ..      LDR      r1,[sp,#0x28]
        0x000014c2:    9a0b        ..      LDR      r2,[sp,#0x2c]
        0x000014c4:    ea4f5c02    O..\    LSL      r12,r2,#20
        0x000014c8:    f64360b7    C..`    MOV      r0,#0x3eb7
        0x000014cc:    f2c00000    ....    MOVT     r0,#0
        0x000014d0:    f64363bb    C..c    MOV      r3,#0x3ebb
        0x000014d4:    f2c00300    ....    MOVT     r3,#0
        0x000014d8:    f1bc0f00    ....    CMP      r12,#0
        0x000014dc:    bf48        H.      IT       MI
        0x000014de:    4603        .F      MOVMI    r3,r0
        0x000014e0:    9808        ..      LDR      r0,[sp,#0x20]
        0x000014e2:    f8dde024    ..$.    LDR      lr,[sp,#0x24]
        0x000014e6:    46ec        .F      MOV      r12,sp
        0x000014e8:    f8cce004    ....    STR      lr,[r12,#4]
        0x000014ec:    f8cc0000    ....    STR      r0,[r12,#0]
        0x000014f0:    f6435099    C..P    MOV      r0,#0x3d99
        0x000014f4:    f2c00000    ....    MOVT     r0,#0
        0x000014f8:    f001ffba    ....    BL       __0printf ; 0x3470
        0x000014fc:    e0d3        ..      B        0x16a6 ; ProcessHardFault + 710
        0x000014fe:    990b        ..      LDR      r1,[sp,#0x2c]
        0x00001500:    2003        .       MOVS     r0,#3
        0x00001502:    ebb03f51    ..Q?    CMP      r0,r1,LSR #13
        0x00001506:    d140        @.      BNE      0x158a ; ProcessHardFault + 426
        0x00001508:    e7ff        ..      B        0x150a ; ProcessHardFault + 298
        0x0000150a:    980b        ..      LDR      r0,[sp,#0x2c]
        0x0000150c:    f3c01084    ....    UBFX     r0,r0,#6,#5
        0x00001510:    9003        ..      STR      r0,[sp,#0xc]
        0x00001512:    980b        ..      LDR      r0,[sp,#0x2c]
        0x00001514:    f3c000c2    ....    UBFX     r0,r0,#3,#3
        0x00001518:    9005        ..      STR      r0,[sp,#0x14]
        0x0000151a:    980b        ..      LDR      r0,[sp,#0x2c]
        0x0000151c:    f0000007    ....    AND      r0,r0,#7
        0x00001520:    9004        ..      STR      r0,[sp,#0x10]
        0x00001522:    9904        ..      LDR      r1,[sp,#0x10]
        0x00001524:    9a05        ..      LDR      r2,[sp,#0x14]
        0x00001526:    9b03        ..      LDR      r3,[sp,#0xc]
        0x00001528:    f643602b    C.+`    MOV      r0,#0x3e2b
        0x0000152c:    f2c00000    ....    MOVT     r0,#0
        0x00001530:    f001ff9e    ....    BL       __0printf ; 0x3470
        0x00001534:    980c        ..      LDR      r0,[sp,#0x30]
        0x00001536:    9905        ..      LDR      r1,[sp,#0x14]
        0x00001538:    f8500021    P.!.    LDR      r0,[r0,r1,LSL #2]
        0x0000153c:    9903        ..      LDR      r1,[sp,#0xc]
        0x0000153e:    4408        .D      ADD      r0,r0,r1
        0x00001540:    9009        ..      STR      r0,[sp,#0x24]
        0x00001542:    980c        ..      LDR      r0,[sp,#0x30]
        0x00001544:    9904        ..      LDR      r1,[sp,#0x10]
        0x00001546:    f8500021    P.!.    LDR      r0,[r0,r1,LSL #2]
        0x0000154a:    9008        ..      STR      r0,[sp,#0x20]
        0x0000154c:    990a        ..      LDR      r1,[sp,#0x28]
        0x0000154e:    9a0b        ..      LDR      r2,[sp,#0x2c]
        0x00001550:    ea4f5c02    O..\    LSL      r12,r2,#20
        0x00001554:    f64360b7    C..`    MOV      r0,#0x3eb7
        0x00001558:    f2c00000    ....    MOVT     r0,#0
        0x0000155c:    f64363bb    C..c    MOV      r3,#0x3ebb
        0x00001560:    f2c00300    ....    MOVT     r3,#0
        0x00001564:    f1bc0f00    ....    CMP      r12,#0
        0x00001568:    bf48        H.      IT       MI
        0x0000156a:    4603        .F      MOVMI    r3,r0
        0x0000156c:    9808        ..      LDR      r0,[sp,#0x20]
        0x0000156e:    f8dde024    ..$.    LDR      lr,[sp,#0x24]
        0x00001572:    46ec        .F      MOV      r12,sp
        0x00001574:    f8cce004    ....    STR      lr,[r12,#4]
        0x00001578:    f8cc0000    ....    STR      r0,[r12,#0]
        0x0000157c:    f6435099    C..P    MOV      r0,#0x3d99
        0x00001580:    f2c00000    ....    MOVT     r0,#0
        0x00001584:    f001ff74    ..t.    BL       __0printf ; 0x3470
        0x00001588:    e08c        ..      B        0x16a4 ; ProcessHardFault + 708
        0x0000158a:    990b        ..      LDR      r1,[sp,#0x2c]
        0x0000158c:    2008        .       MOVS     r0,#8
        0x0000158e:    ebb03f11    ...?    CMP      r0,r1,LSR #12
        0x00001592:    d140        @.      BNE      0x1616 ; ProcessHardFault + 566
        0x00001594:    e7ff        ..      B        0x1596 ; ProcessHardFault + 438
        0x00001596:    980b        ..      LDR      r0,[sp,#0x2c]
        0x00001598:    f3c01084    ....    UBFX     r0,r0,#6,#5
        0x0000159c:    9003        ..      STR      r0,[sp,#0xc]
        0x0000159e:    980b        ..      LDR      r0,[sp,#0x2c]
        0x000015a0:    f3c000c2    ....    UBFX     r0,r0,#3,#3
        0x000015a4:    9005        ..      STR      r0,[sp,#0x14]
        0x000015a6:    980b        ..      LDR      r0,[sp,#0x2c]
        0x000015a8:    f0000007    ....    AND      r0,r0,#7
        0x000015ac:    9004        ..      STR      r0,[sp,#0x10]
        0x000015ae:    9904        ..      LDR      r1,[sp,#0x10]
        0x000015b0:    9a05        ..      LDR      r2,[sp,#0x14]
        0x000015b2:    9b03        ..      LDR      r3,[sp,#0xc]
        0x000015b4:    f643600c    C..`    MOV      r0,#0x3e0c
        0x000015b8:    f2c00000    ....    MOVT     r0,#0
        0x000015bc:    f001ff58    ..X.    BL       __0printf ; 0x3470
        0x000015c0:    980c        ..      LDR      r0,[sp,#0x30]
        0x000015c2:    9905        ..      LDR      r1,[sp,#0x14]
        0x000015c4:    f8500021    P.!.    LDR      r0,[r0,r1,LSL #2]
        0x000015c8:    9903        ..      LDR      r1,[sp,#0xc]
        0x000015ca:    4408        .D      ADD      r0,r0,r1
        0x000015cc:    9009        ..      STR      r0,[sp,#0x24]
        0x000015ce:    980c        ..      LDR      r0,[sp,#0x30]
        0x000015d0:    9904        ..      LDR      r1,[sp,#0x10]
        0x000015d2:    f8500021    P.!.    LDR      r0,[r0,r1,LSL #2]
        0x000015d6:    9008        ..      STR      r0,[sp,#0x20]
        0x000015d8:    990a        ..      LDR      r1,[sp,#0x28]
        0x000015da:    9a0b        ..      LDR      r2,[sp,#0x2c]
        0x000015dc:    ea4f5c02    O..\    LSL      r12,r2,#20
        0x000015e0:    f64360b7    C..`    MOV      r0,#0x3eb7
        0x000015e4:    f2c00000    ....    MOVT     r0,#0
        0x000015e8:    f64363bb    C..c    MOV      r3,#0x3ebb
        0x000015ec:    f2c00300    ....    MOVT     r3,#0
        0x000015f0:    f1bc0f00    ....    CMP      r12,#0
        0x000015f4:    bf48        H.      IT       MI
        0x000015f6:    4603        .F      MOVMI    r3,r0
        0x000015f8:    9808        ..      LDR      r0,[sp,#0x20]
        0x000015fa:    f8dde024    ..$.    LDR      lr,[sp,#0x24]
        0x000015fe:    46ec        .F      MOV      r12,sp
        0x00001600:    f8cce004    ....    STR      lr,[r12,#4]
        0x00001604:    f8cc0000    ....    STR      r0,[r12,#0]
        0x00001608:    f6435099    C..P    MOV      r0,#0x3d99
        0x0000160c:    f2c00000    ....    MOVT     r0,#0
        0x00001610:    f001ff2e    ....    BL       __0printf ; 0x3470
        0x00001614:    e045        E.      B        0x16a2 ; ProcessHardFault + 706
        0x00001616:    990b        ..      LDR      r1,[sp,#0x2c]
        0x00001618:    2009        .       MOVS     r0,#9
        0x0000161a:    ebb03f11    ...?    CMP      r0,r1,LSR #12
        0x0000161e:    d138        8.      BNE      0x1692 ; ProcessHardFault + 690
        0x00001620:    e7ff        ..      B        0x1622 ; ProcessHardFault + 578
        0x00001622:    f89d002c    ..,.    LDRB     r0,[sp,#0x2c]
        0x00001626:    9002        ..      STR      r0,[sp,#8]
        0x00001628:    980b        ..      LDR      r0,[sp,#0x2c]
        0x0000162a:    f3c02002    ...     UBFX     r0,r0,#8,#3
        0x0000162e:    9004        ..      STR      r0,[sp,#0x10]
        0x00001630:    9904        ..      LDR      r1,[sp,#0x10]
        0x00001632:    9a02        ..      LDR      r2,[sp,#8]
        0x00001634:    f6436048    C.H`    MOV      r0,#0x3e48
        0x00001638:    f2c00000    ....    MOVT     r0,#0
        0x0000163c:    f001ff18    ....    BL       __0printf ; 0x3470
        0x00001640:    980c        ..      LDR      r0,[sp,#0x30]
        0x00001642:    6980        .i      LDR      r0,[r0,#0x18]
        0x00001644:    9902        ..      LDR      r1,[sp,#8]
        0x00001646:    4408        .D      ADD      r0,r0,r1
        0x00001648:    9009        ..      STR      r0,[sp,#0x24]
        0x0000164a:    980c        ..      LDR      r0,[sp,#0x30]
        0x0000164c:    9904        ..      LDR      r1,[sp,#0x10]
        0x0000164e:    f8500021    P.!.    LDR      r0,[r0,r1,LSL #2]
        0x00001652:    9008        ..      STR      r0,[sp,#0x20]
        0x00001654:    990a        ..      LDR      r1,[sp,#0x28]
        0x00001656:    9a0b        ..      LDR      r2,[sp,#0x2c]
        0x00001658:    ea4f5c02    O..\    LSL      r12,r2,#20
        0x0000165c:    f64360b7    C..`    MOV      r0,#0x3eb7
        0x00001660:    f2c00000    ....    MOVT     r0,#0
        0x00001664:    f64363bb    C..c    MOV      r3,#0x3ebb
        0x00001668:    f2c00300    ....    MOVT     r3,#0
        0x0000166c:    f1bc0f00    ....    CMP      r12,#0
        0x00001670:    bf48        H.      IT       MI
        0x00001672:    4603        .F      MOVMI    r3,r0
        0x00001674:    9808        ..      LDR      r0,[sp,#0x20]
        0x00001676:    f8dde024    ..$.    LDR      lr,[sp,#0x24]
        0x0000167a:    46ec        .F      MOV      r12,sp
        0x0000167c:    f8cce004    ....    STR      lr,[r12,#4]
        0x00001680:    f8cc0000    ....    STR      r0,[r12,#0]
        0x00001684:    f6435099    C..P    MOV      r0,#0x3d99
        0x00001688:    f2c00000    ....    MOVT     r0,#0
        0x0000168c:    f001fef0    ....    BL       __0printf ; 0x3470
        0x00001690:    e006        ..      B        0x16a0 ; ProcessHardFault + 704
        0x00001692:    f64350dd    C..P    MOV      r0,#0x3ddd
        0x00001696:    f2c00000    ....    MOVT     r0,#0
        0x0000169a:    f001fee9    ....    BL       __0printf ; 0x3470
        0x0000169e:    e7ff        ..      B        0x16a0 ; ProcessHardFault + 704
        0x000016a0:    e7ff        ..      B        0x16a2 ; ProcessHardFault + 706
        0x000016a2:    e7ff        ..      B        0x16a4 ; ProcessHardFault + 708
        0x000016a4:    e7ff        ..      B        0x16a6 ; ProcessHardFault + 710
        0x000016a6:    e7ff        ..      B        0x16a8 ; ProcessHardFault + 712
        0x000016a8:    e7ff        ..      B        0x16aa ; ProcessHardFault + 714
        0x000016aa:    980c        ..      LDR      r0,[sp,#0x30]
        0x000016ac:    6800        .h      LDR      r0,[r0,#0]
        0x000016ae:    f0400001    @...    ORR      r0,r0,#1
        0x000016b2:    b108        ..      CBZ      r0,0x16b8 ; ProcessHardFault + 728
        0x000016b4:    e7ff        ..      B        0x16b6 ; ProcessHardFault + 726
        0x000016b6:    e7f8        ..      B        0x16aa ; ProcessHardFault + 714
        0x000016b8:    980f        ..      LDR      r0,[sp,#0x3c]
        0x000016ba:    b010        ..      ADD      sp,sp,#0x40
        0x000016bc:    bd80        ..      POP      {r7,pc}
        0x000016be:    0000        ..      MOVS     r0,r0
    SYS_Init
        0x000016c0:    b580        ..      PUSH     {r7,lr}
        0x000016c2:    b086        ..      SUB      sp,sp,#0x18
        0x000016c4:    2004        .       MOVS     r0,#4
        0x000016c6:    f7fff973    ..s.    BL       CLK_EnableXtalRC ; 0x9b0
        0x000016ca:    2010        .       MOVS     r0,#0x10
        0x000016cc:    f7fffbc6    ....    BL       CLK_WaitClockReady ; 0xe5c
        0x000016d0:    2007        .       MOVS     r0,#7
        0x000016d2:    2100        .!      MOVS     r1,#0
        0x000016d4:    9105        ..      STR      r1,[sp,#0x14]
        0x000016d6:    f7fffb2f    ../.    BL       CLK_SetHCLK ; 0xd38
        0x000016da:    f7fff823    ..#.    BL       CLK_DisablePLL ; 0x724
        0x000016de:    2001        .       MOVS     r0,#1
        0x000016e0:    9000        ..      STR      r0,[sp,#0]
        0x000016e2:    f7fff965    ..e.    BL       CLK_EnableXtalRC ; 0x9b0
        0x000016e6:    9800        ..      LDR      r0,[sp,#0]
        0x000016e8:    f7fffbb8    ....    BL       CLK_WaitClockReady ; 0xe5c
        0x000016ec:    f24a2000    J..     MOVW     r0,#0xa200
        0x000016f0:    f2c0404a    ..J@    MOVT     r0,#0x44a
        0x000016f4:    f7fffaaa    ....    BL       CLK_SetCoreClock ; 0xc4c
        0x000016f8:    2018        .       MOVS     r0,#0x18
        0x000016fa:    f7fffba1    ....    BL       CLK_SetSysTickClockSrc ; 0xe40
        0x000016fe:    f6435011    C..P    MOV      r0,#0x3d11
        0x00001702:    f2c57080    ...p    MOVT     r0,#0x5780
        0x00001706:    9002        ..      STR      r0,[sp,#8]
        0x00001708:    f7fff816    ....    BL       CLK_EnableModuleClock ; 0x738
        0x0000170c:    2002        .       MOVS     r0,#2
        0x0000170e:    f6c56080    ...`    MOVT     r0,#0x5e80
        0x00001712:    9003        ..      STR      r0,[sp,#0xc]
        0x00001714:    f7fff810    ....    BL       CLK_EnableModuleClock ; 0x738
        0x00001718:    f04f40ac    O..@    MOV      r0,#0x56000000
        0x0000171c:    9004        ..      STR      r0,[sp,#0x10]
        0x0000171e:    f7fff80b    ....    BL       CLK_EnableModuleClock ; 0x738
        0x00001722:    f64f601c    O..`    MOV      r0,#0xfe1c
        0x00001726:    f2c40003    ....    MOVT     r0,#0x4003
        0x0000172a:    9001        ..      STR      r0,[sp,#4]
        0x0000172c:    f7fff804    ....    BL       CLK_EnableModuleClock ; 0x738
        0x00001730:    9801        ..      LDR      r0,[sp,#4]
        0x00001732:    9905        ..      LDR      r1,[sp,#0x14]
        0x00001734:    f44f3240    O.@2    MOV      r2,#0x30000
        0x00001738:    f7fffb3e    ..>.    BL       CLK_SetModuleClock ; 0xdb8
        0x0000173c:    9802        ..      LDR      r0,[sp,#8]
        0x0000173e:    f04f7180    O..q    MOV      r1,#0x1000000
        0x00001742:    f44f7240    O.@r    MOV      r2,#0x300
        0x00001746:    f7fffb37    ..7.    BL       CLK_SetModuleClock ; 0xdb8
        0x0000174a:    9803        ..      LDR      r0,[sp,#0xc]
        0x0000174c:    9a05        ..      LDR      r2,[sp,#0x14]
        0x0000174e:    4611        .F      MOV      r1,r2
        0x00001750:    f7fffb32    ..2.    BL       CLK_SetModuleClock ; 0xdb8
        0x00001754:    9804        ..      LDR      r0,[sp,#0x10]
        0x00001756:    9a05        ..      LDR      r2,[sp,#0x14]
        0x00001758:    2103        .!      MOVS     r1,#3
        0x0000175a:    f7fffb2d    ..-.    BL       CLK_SetModuleClock ; 0xdb8
        0x0000175e:    2130        0!      MOVS     r1,#0x30
        0x00001760:    f2c40100    ....    MOVT     r1,#0x4000
        0x00001764:    6808        .h      LDR      r0,[r1,#0]
        0x00001766:    f02000ff     ...    BIC      r0,r0,#0xff
        0x0000176a:    6008        .`      STR      r0,[r1,#0]
        0x0000176c:    6808        .h      LDR      r0,[r1,#0]
        0x0000176e:    f0400033    @.3.    ORR      r0,r0,#0x33
        0x00001772:    6008        .`      STR      r0,[r1,#0]
        0x00001774:    2138        8!      MOVS     r1,#0x38
        0x00001776:    f2c40100    ....    MOVT     r1,#0x4000
        0x0000177a:    6808        .h      LDR      r0,[r1,#0]
        0x0000177c:    f64072ff    @..r    MOV      r2,#0xfff
        0x00001780:    f6c07200    ...r    MOVT     r2,#0xf00
        0x00001784:    4010        .@      ANDS     r0,r0,r2
        0x00001786:    6008        .`      STR      r0,[r1,#0]
        0x00001788:    6808        .h      LDR      r0,[r1,#0]
        0x0000178a:    f2410200    A...    MOVW     r2,#0x1000
        0x0000178e:    f2c10211    ....    MOVT     r2,#0x1011
        0x00001792:    4310        .C      ORRS     r0,r0,r2
        0x00001794:    6008        .`      STR      r0,[r1,#0]
        0x00001796:    f2440144    D.D.    MOV      r1,#0x4044
        0x0000179a:    f2c40100    ....    MOVT     r1,#0x4000
        0x0000179e:    6808        .h      LDR      r0,[r1,#0]
        0x000017a0:    f4400038    @.8.    ORR      r0,r0,#0xb80000
        0x000017a4:    6008        .`      STR      r0,[r1,#0]
        0x000017a6:    b006        ..      ADD      sp,sp,#0x18
        0x000017a8:    bd80        ..      POP      {r7,pc}
        0x000017aa:    0000        ..      MOVS     r0,r0
    SYS_LockReg
        0x000017ac:    f2401100    @...    MOVW     r1,#0x100
        0x000017b0:    f2c40100    ....    MOVT     r1,#0x4000
        0x000017b4:    2000        .       MOVS     r0,#0
        0x000017b6:    6008        .`      STR      r0,[r1,#0]
        0x000017b8:    4770        pG      BX       lr
        0x000017ba:    0000        ..      MOVS     r0,r0
    SYS_LockReg
        0x000017bc:    f2401100    @...    MOVW     r1,#0x100
        0x000017c0:    f2c40100    ....    MOVT     r1,#0x4000
        0x000017c4:    2000        .       MOVS     r0,#0
        0x000017c6:    6008        .`      STR      r0,[r1,#0]
        0x000017c8:    4770        pG      BX       lr
        0x000017ca:    0000        ..      MOVS     r0,r0
    SYS_ResetChip
        0x000017cc:    2108        .!      MOVS     r1,#8
        0x000017ce:    f2c40100    ....    MOVT     r1,#0x4000
        0x000017d2:    6808        .h      LDR      r0,[r1,#0]
        0x000017d4:    f0400001    @...    ORR      r0,r0,#1
        0x000017d8:    6008        .`      STR      r0,[r1,#0]
        0x000017da:    4770        pG      BX       lr
    SYS_ResetModule
        0x000017dc:    b081        ..      SUB      sp,sp,#4
        0x000017de:    9000        ..      STR      r0,[sp,#0]
        0x000017e0:    9800        ..      LDR      r0,[sp,#0]
        0x000017e2:    f020427f     ..B    BIC      r2,r0,#0xff000000
        0x000017e6:    2101        .!      MOVS     r1,#1
        0x000017e8:    fa01fc02    ....    LSL      r12,r1,r2
        0x000017ec:    0e03        ..      LSRS     r3,r0,#24
        0x000017ee:    2208        ."      MOVS     r2,#8
        0x000017f0:    f2c40200    ....    MOVT     r2,#0x4000
        0x000017f4:    5898        .X      LDR      r0,[r3,r2]
        0x000017f6:    ea40000c    @...    ORR      r0,r0,r12
        0x000017fa:    5098        .P      STR      r0,[r3,r2]
        0x000017fc:    9800        ..      LDR      r0,[sp,#0]
        0x000017fe:    f020437f     ..C    BIC      r3,r0,#0xff000000
        0x00001802:    fa01f303    ....    LSL      r3,r1,r3
        0x00001806:    0e01        ..      LSRS     r1,r0,#24
        0x00001808:    5888        .X      LDR      r0,[r1,r2]
        0x0000180a:    4398        .C      BICS     r0,r0,r3
        0x0000180c:    5088        .P      STR      r0,[r1,r2]
        0x0000180e:    b001        ..      ADD      sp,sp,#4
        0x00001810:    4770        pG      BX       lr
        0x00001812:    0000        ..      MOVS     r0,r0
    SYS_UnlockReg
        0x00001814:    b081        ..      SUB      sp,sp,#4
        0x00001816:    f2480000    H...    MOVW     r0,#0x8000
        0x0000181a:    f2c01051    ..Q.    MOVT     r0,#0x151
        0x0000181e:    9000        ..      STR      r0,[sp,#0]
        0x00001820:    e7ff        ..      B        0x1822 ; SYS_UnlockReg + 14
        0x00001822:    f2401100    @...    MOVW     r1,#0x100
        0x00001826:    f2c40100    ....    MOVT     r1,#0x4000
        0x0000182a:    2059        Y       MOVS     r0,#0x59
        0x0000182c:    6008        .`      STR      r0,[r1,#0]
        0x0000182e:    2016        .       MOVS     r0,#0x16
        0x00001830:    6008        .`      STR      r0,[r1,#0]
        0x00001832:    2088        .       MOVS     r0,#0x88
        0x00001834:    6008        .`      STR      r0,[r1,#0]
        0x00001836:    9800        ..      LDR      r0,[sp,#0]
        0x00001838:    3801        .8      SUBS     r0,#1
        0x0000183a:    9000        ..      STR      r0,[sp,#0]
        0x0000183c:    b908        ..      CBNZ     r0,0x1842 ; SYS_UnlockReg + 46
        0x0000183e:    e7ff        ..      B        0x1840 ; SYS_UnlockReg + 44
        0x00001840:    e008        ..      B        0x1854 ; SYS_UnlockReg + 64
        0x00001842:    e7ff        ..      B        0x1844 ; SYS_UnlockReg + 48
        0x00001844:    f2401000    @...    MOVW     r0,#0x100
        0x00001848:    f2c40000    ....    MOVT     r0,#0x4000
        0x0000184c:    6800        .h      LDR      r0,[r0,#0]
        0x0000184e:    2800        .(      CMP      r0,#0
        0x00001850:    d0e7        ..      BEQ      0x1822 ; SYS_UnlockReg + 14
        0x00001852:    e7ff        ..      B        0x1854 ; SYS_UnlockReg + 64
        0x00001854:    b001        ..      ADD      sp,sp,#4
        0x00001856:    4770        pG      BX       lr
    SYS_UnlockReg
        0x00001858:    b081        ..      SUB      sp,sp,#4
        0x0000185a:    f2480000    H...    MOVW     r0,#0x8000
        0x0000185e:    f2c01051    ..Q.    MOVT     r0,#0x151
        0x00001862:    9000        ..      STR      r0,[sp,#0]
        0x00001864:    e7ff        ..      B        0x1866 ; SYS_UnlockReg + 14
        0x00001866:    f2401100    @...    MOVW     r1,#0x100
        0x0000186a:    f2c40100    ....    MOVT     r1,#0x4000
        0x0000186e:    2059        Y       MOVS     r0,#0x59
        0x00001870:    6008        .`      STR      r0,[r1,#0]
        0x00001872:    2016        .       MOVS     r0,#0x16
        0x00001874:    6008        .`      STR      r0,[r1,#0]
        0x00001876:    2088        .       MOVS     r0,#0x88
        0x00001878:    6008        .`      STR      r0,[r1,#0]
        0x0000187a:    9800        ..      LDR      r0,[sp,#0]
        0x0000187c:    3801        .8      SUBS     r0,#1
        0x0000187e:    9000        ..      STR      r0,[sp,#0]
        0x00001880:    b908        ..      CBNZ     r0,0x1886 ; SYS_UnlockReg + 46
        0x00001882:    e7ff        ..      B        0x1884 ; SYS_UnlockReg + 44
        0x00001884:    e008        ..      B        0x1898 ; SYS_UnlockReg + 64
        0x00001886:    e7ff        ..      B        0x1888 ; SYS_UnlockReg + 48
        0x00001888:    f2401000    @...    MOVW     r0,#0x100
        0x0000188c:    f2c40000    ....    MOVT     r0,#0x4000
        0x00001890:    6800        .h      LDR      r0,[r0,#0]
        0x00001892:    2800        .(      CMP      r0,#0
        0x00001894:    d0e7        ..      BEQ      0x1866 ; SYS_UnlockReg + 14
        0x00001896:    e7ff        ..      B        0x1898 ; SYS_UnlockReg + 64
        0x00001898:    b001        ..      ADD      sp,sp,#4
        0x0000189a:    4770        pG      BX       lr
    SendChar
        0x0000189c:    b580        ..      PUSH     {r7,lr}
        0x0000189e:    b082        ..      SUB      sp,sp,#8
        0x000018a0:    9001        ..      STR      r0,[sp,#4]
        0x000018a2:    9801        ..      LDR      r0,[sp,#4]
        0x000018a4:    f000f802    ....    BL       SendChar_ToUART ; 0x18ac
        0x000018a8:    b002        ..      ADD      sp,sp,#8
        0x000018aa:    bd80        ..      POP      {r7,pc}
    SendChar_ToUART
        0x000018ac:    b081        ..      SUB      sp,sp,#4
        0x000018ae:    9000        ..      STR      r0,[sp,#0]
        0x000018b0:    f89d0000    ....    LDRB     r0,[sp,#0]
        0x000018b4:    280a        .(      CMP      r0,#0xa
        0x000018b6:    d112        ..      BNE      0x18de ; SendChar_ToUART + 50
        0x000018b8:    e7ff        ..      B        0x18ba ; SendChar_ToUART + 14
        0x000018ba:    e7ff        ..      B        0x18bc ; SendChar_ToUART + 16
        0x000018bc:    f2410018    A...    MOV      r0,#0x1018
        0x000018c0:    f2c40007    ....    MOVT     r0,#0x4007
        0x000018c4:    6800        .h      LDR      r0,[r0,#0]
        0x000018c6:    0200        ..      LSLS     r0,r0,#8
        0x000018c8:    2800        .(      CMP      r0,#0
        0x000018ca:    d501        ..      BPL      0x18d0 ; SendChar_ToUART + 36
        0x000018cc:    e7ff        ..      B        0x18ce ; SendChar_ToUART + 34
        0x000018ce:    e7f5        ..      B        0x18bc ; SendChar_ToUART + 16
        0x000018d0:    f2410100    A...    MOVW     r1,#0x1000
        0x000018d4:    f2c40107    ....    MOVT     r1,#0x4007
        0x000018d8:    200d        .       MOVS     r0,#0xd
        0x000018da:    6008        .`      STR      r0,[r1,#0]
        0x000018dc:    e7ff        ..      B        0x18de ; SendChar_ToUART + 50
        0x000018de:    e7ff        ..      B        0x18e0 ; SendChar_ToUART + 52
        0x000018e0:    f2410018    A...    MOV      r0,#0x1018
        0x000018e4:    f2c40007    ....    MOVT     r0,#0x4007
        0x000018e8:    6800        .h      LDR      r0,[r0,#0]
        0x000018ea:    0200        ..      LSLS     r0,r0,#8
        0x000018ec:    2800        .(      CMP      r0,#0
        0x000018ee:    d501        ..      BPL      0x18f4 ; SendChar_ToUART + 72
        0x000018f0:    e7ff        ..      B        0x18f2 ; SendChar_ToUART + 70
        0x000018f2:    e7f5        ..      B        0x18e0 ; SendChar_ToUART + 52
        0x000018f4:    9800        ..      LDR      r0,[sp,#0]
        0x000018f6:    f2410100    A...    MOVW     r1,#0x1000
        0x000018fa:    f2c40107    ....    MOVT     r1,#0x4007
        0x000018fe:    6008        .`      STR      r0,[r1,#0]
        0x00001900:    b001        ..      ADD      sp,sp,#4
        0x00001902:    4770        pG      BX       lr
    SetDataFlashBase
        0x00001904:    b580        ..      PUSH     {r7,lr}
        0x00001906:    b084        ..      SUB      sp,sp,#0x10
        0x00001908:    9002        ..      STR      r0,[sp,#8]
        0x0000190a:    4668        hF      MOV      r0,sp
        0x0000190c:    2101        .!      MOVS     r1,#1
        0x0000190e:    f7fffc39    ..9.    BL       FMC_ReadConfig ; 0x1184
        0x00001912:    f89d0000    ....    LDRB     r0,[sp,#0]
        0x00001916:    07c0        ..      LSLS     r0,r0,#31
        0x00001918:    b918        ..      CBNZ     r0,0x1922 ; SetDataFlashBase + 30
        0x0000191a:    e7ff        ..      B        0x191c ; SetDataFlashBase + 24
        0x0000191c:    2000        .       MOVS     r0,#0
        0x0000191e:    9003        ..      STR      r0,[sp,#0xc]
        0x00001920:    e01f        ..      B        0x1962 ; SetDataFlashBase + 94
        0x00001922:    f7fffb25    ..%.    BL       FMC_EnableConfigUpdate ; 0xf70
        0x00001926:    f44f1040    O.@.    MOV      r0,#0x300000
        0x0000192a:    f7fffb2b    ..+.    BL       FMC_Erase ; 0xf84
        0x0000192e:    9800        ..      LDR      r0,[sp,#0]
        0x00001930:    f0200001     ...    BIC      r0,r0,#1
        0x00001934:    9000        ..      STR      r0,[sp,#0]
        0x00001936:    9802        ..      LDR      r0,[sp,#8]
        0x00001938:    9001        ..      STR      r0,[sp,#4]
        0x0000193a:    4668        hF      MOV      r0,sp
        0x0000193c:    2102        .!      MOVS     r1,#2
        0x0000193e:    f7fffcdd    ....    BL       FMC_WriteConfig ; 0x12fc
        0x00001942:    b120         .      CBZ      r0,0x194e ; SetDataFlashBase + 74
        0x00001944:    e7ff        ..      B        0x1946 ; SetDataFlashBase + 66
        0x00001946:    f04f30ff    O..0    MOV      r0,#0xffffffff
        0x0000194a:    9003        ..      STR      r0,[sp,#0xc]
        0x0000194c:    e009        ..      B        0x1962 ; SetDataFlashBase + 94
        0x0000194e:    2108        .!      MOVS     r1,#8
        0x00001950:    f2c40100    ....    MOVT     r1,#0x4000
        0x00001954:    6808        .h      LDR      r0,[r1,#0]
        0x00001956:    f0400001    @...    ORR      r0,r0,#1
        0x0000195a:    6008        .`      STR      r0,[r1,#0]
        0x0000195c:    2000        .       MOVS     r0,#0
        0x0000195e:    9003        ..      STR      r0,[sp,#0xc]
        0x00001960:    e7ff        ..      B        0x1962 ; SetDataFlashBase + 94
        0x00001962:    9803        ..      LDR      r0,[sp,#0xc]
        0x00001964:    b004        ..      ADD      sp,sp,#0x10
        0x00001966:    bd80        ..      POP      {r7,pc}
    SystemCoreClockUpdate
        0x00001968:    b580        ..      PUSH     {r7,lr}
        0x0000196a:    b084        ..      SUB      sp,sp,#0x10
        0x0000196c:    f7fff86c    ..l.    BL       CLK_GetPLLClockFreq ; 0xa48
        0x00001970:    f2400104    @...    MOVW     r1,#4
        0x00001974:    f2c20100    ....    MOVT     r1,#0x2000
        0x00001978:    6008        .`      STR      r0,[r1,#0]
        0x0000197a:    f2402010    @..     MOVW     r0,#0x210
        0x0000197e:    f2c40000    ....    MOVT     r0,#0x4000
        0x00001982:    6800        .h      LDR      r0,[r0,#0]
        0x00001984:    f0000007    ....    AND      r0,r0,#7
        0x00001988:    9002        ..      STR      r0,[sp,#8]
        0x0000198a:    9802        ..      LDR      r0,[sp,#8]
        0x0000198c:    2802        .(      CMP      r0,#2
        0x0000198e:    d107        ..      BNE      0x19a0 ; SystemCoreClockUpdate + 56
        0x00001990:    e7ff        ..      B        0x1992 ; SystemCoreClockUpdate + 42
        0x00001992:    f2400004    @...    MOVW     r0,#4
        0x00001996:    f2c20000    ....    MOVT     r0,#0x2000
        0x0000199a:    6800        .h      LDR      r0,[r0,#0]
        0x0000199c:    9003        ..      STR      r0,[sp,#0xc]
        0x0000199e:    e008        ..      B        0x19b2 ; SystemCoreClockUpdate + 74
        0x000019a0:    9902        ..      LDR      r1,[sp,#8]
        0x000019a2:    f2400010    @...    MOVW     r0,#0x10
        0x000019a6:    f2c20000    ....    MOVT     r0,#0x2000
        0x000019aa:    f8500021    P.!.    LDR      r0,[r0,r1,LSL #2]
        0x000019ae:    9003        ..      STR      r0,[sp,#0xc]
        0x000019b0:    e7ff        ..      B        0x19b2 ; SystemCoreClockUpdate + 74
        0x000019b2:    f2402020    @.      MOVW     r0,#0x220
        0x000019b6:    f2c40000    ....    MOVT     r0,#0x4000
        0x000019ba:    6800        .h      LDR      r0,[r0,#0]
        0x000019bc:    f000000f    ....    AND      r0,r0,#0xf
        0x000019c0:    3001        .0      ADDS     r0,#1
        0x000019c2:    9001        ..      STR      r0,[sp,#4]
        0x000019c4:    9803        ..      LDR      r0,[sp,#0xc]
        0x000019c6:    9901        ..      LDR      r1,[sp,#4]
        0x000019c8:    fbb0f1f1    ....    UDIV     r1,r0,r1
        0x000019cc:    f2400008    @...    MOVW     r0,#8
        0x000019d0:    f2c20000    ....    MOVT     r0,#0x2000
        0x000019d4:    6001        .`      STR      r1,[r0,#0]
        0x000019d6:    6800        .h      LDR      r0,[r0,#0]
        0x000019d8:    f24a1120    J. .    MOV      r1,#0xa120
        0x000019dc:    f2c00107    ....    MOVT     r1,#7
        0x000019e0:    4408        .D      ADD      r0,r0,r1
        0x000019e2:    f64d6183    M..a    MOV      r1,#0xde83
        0x000019e6:    f2c4311b    ...1    MOVT     r1,#0x431b
        0x000019ea:    fba01001    ....    UMULL    r1,r0,r0,r1
        0x000019ee:    0c80        ..      LSRS     r0,r0,#18
        0x000019f0:    f2400100    @...    MOVW     r1,#0
        0x000019f4:    f2c20100    ....    MOVT     r1,#0x2000
        0x000019f8:    6008        .`      STR      r0,[r1,#0]
        0x000019fa:    b004        ..      ADD      sp,sp,#0x10
        0x000019fc:    bd80        ..      POP      {r7,pc}
        0x000019fe:    0000        ..      MOVS     r0,r0
    SystemInit
        0x00001a00:    b580        ..      PUSH     {r7,lr}
        0x00001a02:    f7ffff07    ....    BL       SYS_UnlockReg ; 0x1814
        0x00001a06:    f04f4080    O..@    MOV      r0,#0x40000000
        0x00001a0a:    6801        .h      LDR      r1,[r0,#0]
        0x00001a0c:    f6401045    @.E.    MOV      r0,#0x945
        0x00001a10:    ebb03f11    ...?    CMP      r0,r1,LSR #12
        0x00001a14:    d108        ..      BNE      0x1a28 ; SystemInit + 40
        0x00001a16:    e7ff        ..      B        0x1a18 ; SystemInit + 24
        0x00001a18:    2114        .!      MOVS     r1,#0x14
        0x00001a1a:    f2c40100    ....    MOVT     r1,#0x4000
        0x00001a1e:    6808        .h      LDR      r0,[r1,#0]
        0x00001a20:    f0400080    @...    ORR      r0,r0,#0x80
        0x00001a24:    6008        .`      STR      r0,[r1,#0]
        0x00001a26:    e7ff        ..      B        0x1a28 ; SystemInit + 40
        0x00001a28:    f2402100    @..!    MOVW     r1,#0x200
        0x00001a2c:    f2c40100    ....    MOVT     r1,#0x4000
        0x00001a30:    6808        .h      LDR      r0,[r1,#0]
        0x00001a32:    f4205080     ..P    BIC      r0,r0,#0x1000
        0x00001a36:    6008        .`      STR      r0,[r1,#0]
        0x00001a38:    f7fffeb8    ....    BL       SYS_LockReg ; 0x17ac
        0x00001a3c:    f64e5188    N..Q    MOV      r1,#0xed88
        0x00001a40:    f2ce0100    ....    MOVT     r1,#0xe000
        0x00001a44:    6808        .h      LDR      r0,[r1,#0]
        0x00001a46:    f4400070    @.p.    ORR      r0,r0,#0xf00000
        0x00001a4a:    6008        .`      STR      r0,[r1,#0]
        0x00001a4c:    bd80        ..      POP      {r7,pc}
        0x00001a4e:    0000        ..      MOVS     r0,r0
    TIMER_ClearIntFlag
        0x00001a50:    b081        ..      SUB      sp,sp,#4
        0x00001a52:    9000        ..      STR      r0,[sp,#0]
        0x00001a54:    9800        ..      LDR      r0,[sp,#0]
        0x00001a56:    6880        .h      LDR      r0,[r0,#8]
        0x00001a58:    f0400001    @...    ORR      r0,r0,#1
        0x00001a5c:    f0200002     ...    BIC      r0,r0,#2
        0x00001a60:    9900        ..      LDR      r1,[sp,#0]
        0x00001a62:    6088        .`      STR      r0,[r1,#8]
        0x00001a64:    b001        ..      ADD      sp,sp,#4
        0x00001a66:    4770        pG      BX       lr
    TIMER_EnableInt
        0x00001a68:    b081        ..      SUB      sp,sp,#4
        0x00001a6a:    9000        ..      STR      r0,[sp,#0]
        0x00001a6c:    9900        ..      LDR      r1,[sp,#0]
        0x00001a6e:    6808        .h      LDR      r0,[r1,#0]
        0x00001a70:    f0405000    @..P    ORR      r0,r0,#0x20000000
        0x00001a74:    6008        .`      STR      r0,[r1,#0]
        0x00001a76:    b001        ..      ADD      sp,sp,#4
        0x00001a78:    4770        pG      BX       lr
        0x00001a7a:    0000        ..      MOVS     r0,r0
    TIMER_GetIntFlag
        0x00001a7c:    b081        ..      SUB      sp,sp,#4
        0x00001a7e:    9000        ..      STR      r0,[sp,#0]
        0x00001a80:    9800        ..      LDR      r0,[sp,#0]
        0x00001a82:    6880        .h      LDR      r0,[r0,#8]
        0x00001a84:    f0000001    ....    AND      r0,r0,#1
        0x00001a88:    b001        ..      ADD      sp,sp,#4
        0x00001a8a:    4770        pG      BX       lr
    TIMER_GetModuleClock
        0x00001a8c:    b510        ..      PUSH     {r4,lr}
        0x00001a8e:    b08c        ..      SUB      sp,sp,#0x30
        0x00001a90:    900b        ..      STR      r0,[sp,#0x2c]
        0x00001a92:    f6435164    C.dQ    MOV      r1,#0x3d64
        0x00001a96:    f2c00100    ....    MOVT     r1,#0
        0x00001a9a:    9100        ..      STR      r1,[sp,#0]
        0x00001a9c:    6808        .h      LDR      r0,[r1,#0]
        0x00001a9e:    684a        Jh      LDR      r2,[r1,#4]
        0x00001aa0:    688b        .h      LDR      r3,[r1,#8]
        0x00001aa2:    f8d1c00c    ....    LDR      r12,[r1,#0xc]
        0x00001aa6:    f8d1e010    ....    LDR      lr,[r1,#0x10]
        0x00001aaa:    694c        Li      LDR      r4,[r1,#0x14]
        0x00001aac:    9406        ..      STR      r4,[sp,#0x18]
        0x00001aae:    f8cde014    ....    STR      lr,[sp,#0x14]
        0x00001ab2:    f8cdc010    ....    STR      r12,[sp,#0x10]
        0x00001ab6:    9303        ..      STR      r3,[sp,#0xc]
        0x00001ab8:    9202        ..      STR      r2,[sp,#8]
        0x00001aba:    9001        ..      STR      r0,[sp,#4]
        0x00001abc:    6988        .i      LDR      r0,[r1,#0x18]
        0x00001abe:    69c9        .i      LDR      r1,[r1,#0x1c]
        0x00001ac0:    9108        ..      STR      r1,[sp,#0x20]
        0x00001ac2:    9007        ..      STR      r0,[sp,#0x1c]
        0x00001ac4:    980b        ..      LDR      r0,[sp,#0x2c]
        0x00001ac6:    2100        .!      MOVS     r1,#0
        0x00001ac8:    f2c40105    ....    MOVT     r1,#0x4005
        0x00001acc:    4288        .B      CMP      r0,r1
        0x00001ace:    d109        ..      BNE      0x1ae4 ; TIMER_GetModuleClock + 88
        0x00001ad0:    e7ff        ..      B        0x1ad2 ; TIMER_GetModuleClock + 70
        0x00001ad2:    f2402014    @..     MOVW     r0,#0x214
        0x00001ad6:    f2c40000    ....    MOVT     r0,#0x4000
        0x00001ada:    6800        .h      LDR      r0,[r0,#0]
        0x00001adc:    f3c02002    ...     UBFX     r0,r0,#8,#3
        0x00001ae0:    900a        ..      STR      r0,[sp,#0x28]
        0x00001ae2:    e02b        +.      B        0x1b3c ; TIMER_GetModuleClock + 176
        0x00001ae4:    980b        ..      LDR      r0,[sp,#0x2c]
        0x00001ae6:    2120         !      MOVS     r1,#0x20
        0x00001ae8:    f2c40105    ....    MOVT     r1,#0x4005
        0x00001aec:    4288        .B      CMP      r0,r1
        0x00001aee:    d109        ..      BNE      0x1b04 ; TIMER_GetModuleClock + 120
        0x00001af0:    e7ff        ..      B        0x1af2 ; TIMER_GetModuleClock + 102
        0x00001af2:    f2402014    @..     MOVW     r0,#0x214
        0x00001af6:    f2c40000    ....    MOVT     r0,#0x4000
        0x00001afa:    6800        .h      LDR      r0,[r0,#0]
        0x00001afc:    f3c03002    ...0    UBFX     r0,r0,#12,#3
        0x00001b00:    900a        ..      STR      r0,[sp,#0x28]
        0x00001b02:    e01a        ..      B        0x1b3a ; TIMER_GetModuleClock + 174
        0x00001b04:    980b        ..      LDR      r0,[sp,#0x2c]
        0x00001b06:    f2410100    A...    MOVW     r1,#0x1000
        0x00001b0a:    f2c40105    ....    MOVT     r1,#0x4005
        0x00001b0e:    4288        .B      CMP      r0,r1
        0x00001b10:    d109        ..      BNE      0x1b26 ; TIMER_GetModuleClock + 154
        0x00001b12:    e7ff        ..      B        0x1b14 ; TIMER_GetModuleClock + 136
        0x00001b14:    f2402014    @..     MOVW     r0,#0x214
        0x00001b18:    f2c40000    ....    MOVT     r0,#0x4000
        0x00001b1c:    6800        .h      LDR      r0,[r0,#0]
        0x00001b1e:    f3c04002    ...@    UBFX     r0,r0,#16,#3
        0x00001b22:    900a        ..      STR      r0,[sp,#0x28]
        0x00001b24:    e008        ..      B        0x1b38 ; TIMER_GetModuleClock + 172
        0x00001b26:    f2402014    @..     MOVW     r0,#0x214
        0x00001b2a:    f2c40000    ....    MOVT     r0,#0x4000
        0x00001b2e:    6800        .h      LDR      r0,[r0,#0]
        0x00001b30:    f3c05002    ...P    UBFX     r0,r0,#20,#3
        0x00001b34:    900a        ..      STR      r0,[sp,#0x28]
        0x00001b36:    e7ff        ..      B        0x1b38 ; TIMER_GetModuleClock + 172
        0x00001b38:    e7ff        ..      B        0x1b3a ; TIMER_GetModuleClock + 174
        0x00001b3a:    e7ff        ..      B        0x1b3c ; TIMER_GetModuleClock + 176
        0x00001b3c:    980a        ..      LDR      r0,[sp,#0x28]
        0x00001b3e:    2802        .(      CMP      r0,#2
        0x00001b40:    d117        ..      BNE      0x1b72 ; TIMER_GetModuleClock + 230
        0x00001b42:    e7ff        ..      B        0x1b44 ; TIMER_GetModuleClock + 184
        0x00001b44:    980b        ..      LDR      r0,[sp,#0x2c]
        0x00001b46:    2100        .!      MOVS     r1,#0
        0x00001b48:    f2c40105    ....    MOVT     r1,#0x4005
        0x00001b4c:    4288        .B      CMP      r0,r1
        0x00001b4e:    d007        ..      BEQ      0x1b60 ; TIMER_GetModuleClock + 212
        0x00001b50:    e7ff        ..      B        0x1b52 ; TIMER_GetModuleClock + 198
        0x00001b52:    980b        ..      LDR      r0,[sp,#0x2c]
        0x00001b54:    2120         !      MOVS     r1,#0x20
        0x00001b56:    f2c40105    ....    MOVT     r1,#0x4005
        0x00001b5a:    4288        .B      CMP      r0,r1
        0x00001b5c:    d104        ..      BNE      0x1b68 ; TIMER_GetModuleClock + 220
        0x00001b5e:    e7ff        ..      B        0x1b60 ; TIMER_GetModuleClock + 212
        0x00001b60:    f7feff32    ..2.    BL       CLK_GetPCLK0Freq ; 0x9c8
        0x00001b64:    9009        ..      STR      r0,[sp,#0x24]
        0x00001b66:    e003        ..      B        0x1b70 ; TIMER_GetModuleClock + 228
        0x00001b68:    f7feff4e    ..N.    BL       CLK_GetPCLK1Freq ; 0xa08
        0x00001b6c:    9009        ..      STR      r0,[sp,#0x24]
        0x00001b6e:    e7ff        ..      B        0x1b70 ; TIMER_GetModuleClock + 228
        0x00001b70:    e005        ..      B        0x1b7e ; TIMER_GetModuleClock + 242
        0x00001b72:    990a        ..      LDR      r1,[sp,#0x28]
        0x00001b74:    a801        ..      ADD      r0,sp,#4
        0x00001b76:    f8500021    P.!.    LDR      r0,[r0,r1,LSL #2]
        0x00001b7a:    9009        ..      STR      r0,[sp,#0x24]
        0x00001b7c:    e7ff        ..      B        0x1b7e ; TIMER_GetModuleClock + 242
        0x00001b7e:    9809        ..      LDR      r0,[sp,#0x24]
        0x00001b80:    b00c        ..      ADD      sp,sp,#0x30
        0x00001b82:    bd10        ..      POP      {r4,pc}
    TIMER_Open
        0x00001b84:    b580        ..      PUSH     {r7,lr}
        0x00001b86:    b086        ..      SUB      sp,sp,#0x18
        0x00001b88:    9005        ..      STR      r0,[sp,#0x14]
        0x00001b8a:    9104        ..      STR      r1,[sp,#0x10]
        0x00001b8c:    9203        ..      STR      r2,[sp,#0xc]
        0x00001b8e:    9805        ..      LDR      r0,[sp,#0x14]
        0x00001b90:    f7ffff7c    ..|.    BL       TIMER_GetModuleClock ; 0x1a8c
        0x00001b94:    9002        ..      STR      r0,[sp,#8]
        0x00001b96:    2000        .       MOVS     r0,#0
        0x00001b98:    9001        ..      STR      r0,[sp,#4]
        0x00001b9a:    9000        ..      STR      r0,[sp,#0]
        0x00001b9c:    9803        ..      LDR      r0,[sp,#0xc]
        0x00001b9e:    9902        ..      LDR      r1,[sp,#8]
        0x00001ba0:    ebb00f51    ..Q.    CMP      r0,r1,LSR #1
        0x00001ba4:    d903        ..      BLS      0x1bae ; TIMER_Open + 42
        0x00001ba6:    e7ff        ..      B        0x1ba8 ; TIMER_Open + 36
        0x00001ba8:    2002        .       MOVS     r0,#2
        0x00001baa:    9001        ..      STR      r0,[sp,#4]
        0x00001bac:    e012        ..      B        0x1bd4 ; TIMER_Open + 80
        0x00001bae:    9802        ..      LDR      r0,[sp,#8]
        0x00001bb0:    9903        ..      LDR      r1,[sp,#0xc]
        0x00001bb2:    fbb0f0f1    ....    UDIV     r0,r0,r1
        0x00001bb6:    9001        ..      STR      r0,[sp,#4]
        0x00001bb8:    f89d0007    ....    LDRB     r0,[sp,#7]
        0x00001bbc:    9000        ..      STR      r0,[sp,#0]
        0x00001bbe:    9800        ..      LDR      r0,[sp,#0]
        0x00001bc0:    b138        8.      CBZ      r0,0x1bd2 ; TIMER_Open + 78
        0x00001bc2:    e7ff        ..      B        0x1bc4 ; TIMER_Open + 64
        0x00001bc4:    9801        ..      LDR      r0,[sp,#4]
        0x00001bc6:    9900        ..      LDR      r1,[sp,#0]
        0x00001bc8:    3101        .1      ADDS     r1,#1
        0x00001bca:    fbb0f0f1    ....    UDIV     r0,r0,r1
        0x00001bce:    9001        ..      STR      r0,[sp,#4]
        0x00001bd0:    e7ff        ..      B        0x1bd2 ; TIMER_Open + 78
        0x00001bd2:    e7ff        ..      B        0x1bd4 ; TIMER_Open + 80
        0x00001bd4:    9804        ..      LDR      r0,[sp,#0x10]
        0x00001bd6:    9900        ..      LDR      r1,[sp,#0]
        0x00001bd8:    4308        .C      ORRS     r0,r0,r1
        0x00001bda:    9905        ..      LDR      r1,[sp,#0x14]
        0x00001bdc:    6008        .`      STR      r0,[r1,#0]
        0x00001bde:    9801        ..      LDR      r0,[sp,#4]
        0x00001be0:    9905        ..      LDR      r1,[sp,#0x14]
        0x00001be2:    6048        H`      STR      r0,[r1,#4]
        0x00001be4:    9802        ..      LDR      r0,[sp,#8]
        0x00001be6:    9901        ..      LDR      r1,[sp,#4]
        0x00001be8:    9a00        ..      LDR      r2,[sp,#0]
        0x00001bea:    3201        .2      ADDS     r2,#1
        0x00001bec:    4351        QC      MULS     r1,r2,r1
        0x00001bee:    fbb0f0f1    ....    UDIV     r0,r0,r1
        0x00001bf2:    b006        ..      ADD      sp,sp,#0x18
        0x00001bf4:    bd80        ..      POP      {r7,pc}
        0x00001bf6:    0000        ..      MOVS     r0,r0
    TIMER_Start
        0x00001bf8:    b081        ..      SUB      sp,sp,#4
        0x00001bfa:    9000        ..      STR      r0,[sp,#0]
        0x00001bfc:    9900        ..      LDR      r1,[sp,#0]
        0x00001bfe:    6808        .h      LDR      r0,[r1,#0]
        0x00001c00:    f0404080    @..@    ORR      r0,r0,#0x40000000
        0x00001c04:    6008        .`      STR      r0,[r1,#0]
        0x00001c06:    b001        ..      ADD      sp,sp,#4
        0x00001c08:    4770        pG      BX       lr
        0x00001c0a:    0000        ..      MOVS     r0,r0
    TMR0_IRQHandler
        0x00001c0c:    b580        ..      PUSH     {r7,lr}
        0x00001c0e:    2000        .       MOVS     r0,#0
        0x00001c10:    f2c40005    ....    MOVT     r0,#0x4005
        0x00001c14:    f7ffff32    ..2.    BL       TIMER_GetIntFlag ; 0x1a7c
        0x00001c18:    2801        .(      CMP      r0,#1
        0x00001c1a:    d11c        ..      BNE      0x1c56 ; TMR0_IRQHandler + 74
        0x00001c1c:    e7ff        ..      B        0x1c1e ; TMR0_IRQHandler + 18
        0x00001c1e:    2000        .       MOVS     r0,#0
        0x00001c20:    f2c40005    ....    MOVT     r0,#0x4005
        0x00001c24:    f7ffff14    ....    BL       TIMER_ClearIntFlag ; 0x1a50
        0x00001c28:    f2401112    @...    MOVW     r1,#0x112
        0x00001c2c:    f2c20100    ....    MOVT     r1,#0x2000
        0x00001c30:    2001        .       MOVS     r0,#1
        0x00001c32:    7008        .p      STRB     r0,[r1,#0]
        0x00001c34:    f240100e    @...    MOVW     r0,#0x10e
        0x00001c38:    f2c20000    ....    MOVT     r0,#0x2000
        0x00001c3c:    7800        .x      LDRB     r0,[r0,#0]
        0x00001c3e:    2801        .(      CMP      r0,#1
        0x00001c40:    db08        ..      BLT      0x1c54 ; TMR0_IRQHandler + 72
        0x00001c42:    e7ff        ..      B        0x1c44 ; TMR0_IRQHandler + 56
        0x00001c44:    f240110e    @...    MOVW     r1,#0x10e
        0x00001c48:    f2c20100    ....    MOVT     r1,#0x2000
        0x00001c4c:    7808        .x      LDRB     r0,[r1,#0]
        0x00001c4e:    3801        .8      SUBS     r0,#1
        0x00001c50:    7008        .p      STRB     r0,[r1,#0]
        0x00001c52:    e7ff        ..      B        0x1c54 ; TMR0_IRQHandler + 72
        0x00001c54:    e7ff        ..      B        0x1c56 ; TMR0_IRQHandler + 74
        0x00001c56:    bd80        ..      POP      {r7,pc}
    UART1_IRQHandler
        0x00001c58:    b085        ..      SUB      sp,sp,#0x14
        0x00001c5a:    20ff        .       MOVS     r0,#0xff
        0x00001c5c:    f88d0013    ....    STRB     r0,[sp,#0x13]
        0x00001c60:    f241001c    A...    MOV      r0,#0x101c
        0x00001c64:    f2c40007    ....    MOVT     r0,#0x4007
        0x00001c68:    6800        .h      LDR      r0,[r0,#0]
        0x00001c6a:    9003        ..      STR      r0,[sp,#0xc]
        0x00001c6c:    2000        .       MOVS     r0,#0
        0x00001c6e:    f8ad000a    ....    STRH     r0,[sp,#0xa]
        0x00001c72:    f89d000d    ....    LDRB     r0,[sp,#0xd]
        0x00001c76:    07c0        ..      LSLS     r0,r0,#31
        0x00001c78:    2800        .(      CMP      r0,#0
        0x00001c7a:    f00081be    ....    BEQ.W    0x1ffa ; UART1_IRQHandler + 930
        0x00001c7e:    e7ff        ..      B        0x1c80 ; UART1_IRQHandler + 40
        0x00001c80:    e7ff        ..      B        0x1c82 ; UART1_IRQHandler + 42
        0x00001c82:    f241001c    A...    MOV      r0,#0x101c
        0x00001c86:    f2c40007    ....    MOVT     r0,#0x4007
        0x00001c8a:    6800        .h      LDR      r0,[r0,#0]
        0x00001c8c:    07c0        ..      LSLS     r0,r0,#31
        0x00001c8e:    2800        .(      CMP      r0,#0
        0x00001c90:    f00081b2    ....    BEQ.W    0x1ff8 ; UART1_IRQHandler + 928
        0x00001c94:    e7ff        ..      B        0x1c96 ; UART1_IRQHandler + 62
        0x00001c96:    f2410000    A...    MOVW     r0,#0x1000
        0x00001c9a:    f2c40007    ....    MOVT     r0,#0x4007
        0x00001c9e:    6800        .h      LDR      r0,[r0,#0]
        0x00001ca0:    f88d0013    ....    STRB     r0,[sp,#0x13]
        0x00001ca4:    f2400030    @.0.    MOVW     r0,#0x30
        0x00001ca8:    f2c20000    ....    MOVT     r0,#0x2000
        0x00001cac:    7800        .x      LDRB     r0,[r0,#0]
        0x00001cae:    2802        .(      CMP      r0,#2
        0x00001cb0:    f04080a2    @...    BNE.W    0x1df8 ; UART1_IRQHandler + 416
        0x00001cb4:    e7ff        ..      B        0x1cb6 ; UART1_IRQHandler + 94
        0x00001cb6:    f2401011    @...    MOV      r0,#0x111
        0x00001cba:    f2c20000    ....    MOVT     r0,#0x2000
        0x00001cbe:    7800        .x      LDRB     r0,[r0,#0]
        0x00001cc0:    b968        h.      CBNZ     r0,0x1cde ; UART1_IRQHandler + 134
        0x00001cc2:    e7ff        ..      B        0x1cc4 ; UART1_IRQHandler + 108
        0x00001cc4:    f89d0013    ....    LDRB     r0,[sp,#0x13]
        0x00001cc8:    2805        .(      CMP      r0,#5
        0x00001cca:    d107        ..      BNE      0x1cdc ; UART1_IRQHandler + 132
        0x00001ccc:    e7ff        ..      B        0x1cce ; UART1_IRQHandler + 118
        0x00001cce:    f2401111    @...    MOV      r1,#0x111
        0x00001cd2:    f2c20100    ....    MOVT     r1,#0x2000
        0x00001cd6:    2001        .       MOVS     r0,#1
        0x00001cd8:    7008        .p      STRB     r0,[r1,#0]
        0x00001cda:    e7ff        ..      B        0x1cdc ; UART1_IRQHandler + 132
        0x00001cdc:    e08b        ..      B        0x1df6 ; UART1_IRQHandler + 414
        0x00001cde:    f89d0013    ....    LDRB     r0,[sp,#0x13]
        0x00001ce2:    3840        @8      SUBS     r0,r0,#0x40
        0x00001ce4:    4601        .F      MOV      r1,r0
        0x00001ce6:    9101        ..      STR      r1,[sp,#4]
        0x00001ce8:    2810        .(      CMP      r0,#0x10
        0x00001cea:    f2008067    ..g.    BHI.W    0x1dbc ; UART1_IRQHandler + 356
        0x00001cee:    9901        ..      LDR      r1,[sp,#4]
        0x00001cf0:    e8dff001    ....    TBB      [pc,r1]
    $d
        0x00001cf4:    30231609    ..#0    DCD    807605769
        0x00001cf8:    64644a3d    =Jdd    DCD    1684294205
        0x00001cfc:    64646464    dddd    DCD    1684300900
        0x00001d00:    64646464    dddd    DCD    1684300900
        0x00001d04:    0057        W.      DCW    87
    $t
        0x00001d06:    f240010d    @...    MOVW     r1,#0xd
        0x00001d0a:    f2c20100    ....    MOVT     r1,#0x2000
        0x00001d0e:    2021        !       MOVS     r0,#0x21
        0x00001d10:    7008        .p      STRB     r0,[r1,#0]
        0x00001d12:    f240110f    @...    MOV      r1,#0x10f
        0x00001d16:    f2c20100    ....    MOVT     r1,#0x2000
        0x00001d1a:    2001        .       MOVS     r0,#1
        0x00001d1c:    7008        .p      STRB     r0,[r1,#0]
        0x00001d1e:    e054        T.      B        0x1dca ; UART1_IRQHandler + 370
        0x00001d20:    f240010d    @...    MOVW     r1,#0xd
        0x00001d24:    f2c20100    ....    MOVT     r1,#0x2000
        0x00001d28:    2014        .       MOVS     r0,#0x14
        0x00001d2a:    7008        .p      STRB     r0,[r1,#0]
        0x00001d2c:    f240110f    @...    MOV      r1,#0x10f
        0x00001d30:    f2c20100    ....    MOVT     r1,#0x2000
        0x00001d34:    2001        .       MOVS     r0,#1
        0x00001d36:    7008        .p      STRB     r0,[r1,#0]
        0x00001d38:    e047        G.      B        0x1dca ; UART1_IRQHandler + 370
        0x00001d3a:    f240010d    @...    MOVW     r1,#0xd
        0x00001d3e:    f2c20100    ....    MOVT     r1,#0x2000
        0x00001d42:    200c        .       MOVS     r0,#0xc
        0x00001d44:    7008        .p      STRB     r0,[r1,#0]
        0x00001d46:    f240110f    @...    MOV      r1,#0x10f
        0x00001d4a:    f2c20100    ....    MOVT     r1,#0x2000
        0x00001d4e:    2001        .       MOVS     r0,#1
        0x00001d50:    7008        .p      STRB     r0,[r1,#0]
        0x00001d52:    e03a        :.      B        0x1dca ; UART1_IRQHandler + 370
        0x00001d54:    f240010d    @...    MOVW     r1,#0xd
        0x00001d58:    f2c20100    ....    MOVT     r1,#0x2000
        0x00001d5c:    200a        .       MOVS     r0,#0xa
        0x00001d5e:    7008        .p      STRB     r0,[r1,#0]
        0x00001d60:    f240110f    @...    MOV      r1,#0x10f
        0x00001d64:    f2c20100    ....    MOVT     r1,#0x2000
        0x00001d68:    2001        .       MOVS     r0,#1
        0x00001d6a:    7008        .p      STRB     r0,[r1,#0]
        0x00001d6c:    e02d        -.      B        0x1dca ; UART1_IRQHandler + 370
        0x00001d6e:    f240010d    @...    MOVW     r1,#0xd
        0x00001d72:    f2c20100    ....    MOVT     r1,#0x2000
        0x00001d76:    2008        .       MOVS     r0,#8
        0x00001d78:    7008        .p      STRB     r0,[r1,#0]
        0x00001d7a:    f240110f    @...    MOV      r1,#0x10f
        0x00001d7e:    f2c20100    ....    MOVT     r1,#0x2000
        0x00001d82:    2001        .       MOVS     r0,#1
        0x00001d84:    7008        .p      STRB     r0,[r1,#0]
        0x00001d86:    e020         .      B        0x1dca ; UART1_IRQHandler + 370
        0x00001d88:    f240010d    @...    MOVW     r1,#0xd
        0x00001d8c:    f2c20100    ....    MOVT     r1,#0x2000
        0x00001d90:    2007        .       MOVS     r0,#7
        0x00001d92:    7008        .p      STRB     r0,[r1,#0]
        0x00001d94:    f240110f    @...    MOV      r1,#0x10f
        0x00001d98:    f2c20100    ....    MOVT     r1,#0x2000
        0x00001d9c:    2001        .       MOVS     r0,#1
        0x00001d9e:    7008        .p      STRB     r0,[r1,#0]
        0x00001da0:    e013        ..      B        0x1dca ; UART1_IRQHandler + 370
        0x00001da2:    f240010d    @...    MOVW     r1,#0xd
        0x00001da6:    f2c20100    ....    MOVT     r1,#0x2000
        0x00001daa:    2000        .       MOVS     r0,#0
        0x00001dac:    7008        .p      STRB     r0,[r1,#0]
        0x00001dae:    f240110f    @...    MOV      r1,#0x10f
        0x00001db2:    f2c20100    ....    MOVT     r1,#0x2000
        0x00001db6:    2001        .       MOVS     r0,#1
        0x00001db8:    7008        .p      STRB     r0,[r1,#0]
        0x00001dba:    e006        ..      B        0x1dca ; UART1_IRQHandler + 370
        0x00001dbc:    f2401110    @...    MOVW     r1,#0x110
        0x00001dc0:    f2c20100    ....    MOVT     r1,#0x2000
        0x00001dc4:    2001        .       MOVS     r0,#1
        0x00001dc6:    7008        .p      STRB     r0,[r1,#0]
        0x00001dc8:    e7ff        ..      B        0x1dca ; UART1_IRQHandler + 370
        0x00001dca:    f240100f    @...    MOV      r0,#0x10f
        0x00001dce:    f2c20000    ....    MOVT     r0,#0x2000
        0x00001dd2:    7800        .x      LDRB     r0,[r0,#0]
        0x00001dd4:    2801        .(      CMP      r0,#1
        0x00001dd6:    d107        ..      BNE      0x1de8 ; UART1_IRQHandler + 400
        0x00001dd8:    e7ff        ..      B        0x1dda ; UART1_IRQHandler + 386
        0x00001dda:    f2400130    @.0.    MOVW     r1,#0x30
        0x00001dde:    f2c20100    ....    MOVT     r1,#0x2000
        0x00001de2:    2006        .       MOVS     r0,#6
        0x00001de4:    7008        .p      STRB     r0,[r1,#0]
        0x00001de6:    e7ff        ..      B        0x1de8 ; UART1_IRQHandler + 400
        0x00001de8:    f2401111    @...    MOV      r1,#0x111
        0x00001dec:    f2c20100    ....    MOVT     r1,#0x2000
        0x00001df0:    2000        .       MOVS     r0,#0
        0x00001df2:    7008        .p      STRB     r0,[r1,#0]
        0x00001df4:    e7ff        ..      B        0x1df6 ; UART1_IRQHandler + 414
        0x00001df6:    e0fe        ..      B        0x1ff6 ; UART1_IRQHandler + 926
        0x00001df8:    f2400030    @.0.    MOVW     r0,#0x30
        0x00001dfc:    f2c20000    ....    MOVT     r0,#0x2000
        0x00001e00:    7800        .x      LDRB     r0,[r0,#0]
        0x00001e02:    2801        .(      CMP      r0,#1
        0x00001e04:    d113        ..      BNE      0x1e2e ; UART1_IRQHandler + 470
        0x00001e06:    e7ff        ..      B        0x1e08 ; UART1_IRQHandler + 432
        0x00001e08:    f89d0013    ....    LDRB     r0,[sp,#0x13]
        0x00001e0c:    2802        .(      CMP      r0,#2
        0x00001e0e:    d10d        ..      BNE      0x1e2c ; UART1_IRQHandler + 468
        0x00001e10:    e7ff        ..      B        0x1e12 ; UART1_IRQHandler + 442
        0x00001e12:    f2400130    @.0.    MOVW     r1,#0x30
        0x00001e16:    f2c20100    ....    MOVT     r1,#0x2000
        0x00001e1a:    2006        .       MOVS     r0,#6
        0x00001e1c:    7008        .p      STRB     r0,[r1,#0]
        0x00001e1e:    f240110f    @...    MOV      r1,#0x10f
        0x00001e22:    f2c20100    ....    MOVT     r1,#0x2000
        0x00001e26:    2001        .       MOVS     r0,#1
        0x00001e28:    7008        .p      STRB     r0,[r1,#0]
        0x00001e2a:    e7ff        ..      B        0x1e2c ; UART1_IRQHandler + 468
        0x00001e2c:    e0e2        ..      B        0x1ff4 ; UART1_IRQHandler + 924
        0x00001e2e:    f2400030    @.0.    MOVW     r0,#0x30
        0x00001e32:    f2c20000    ....    MOVT     r0,#0x2000
        0x00001e36:    7800        .x      LDRB     r0,[r0,#0]
        0x00001e38:    2803        .(      CMP      r0,#3
        0x00001e3a:    d010        ..      BEQ      0x1e5e ; UART1_IRQHandler + 518
        0x00001e3c:    e7ff        ..      B        0x1e3e ; UART1_IRQHandler + 486
        0x00001e3e:    f2400030    @.0.    MOVW     r0,#0x30
        0x00001e42:    f2c20000    ....    MOVT     r0,#0x2000
        0x00001e46:    7800        .x      LDRB     r0,[r0,#0]
        0x00001e48:    2804        .(      CMP      r0,#4
        0x00001e4a:    d008        ..      BEQ      0x1e5e ; UART1_IRQHandler + 518
        0x00001e4c:    e7ff        ..      B        0x1e4e ; UART1_IRQHandler + 502
        0x00001e4e:    f2400030    @.0.    MOVW     r0,#0x30
        0x00001e52:    f2c20000    ....    MOVT     r0,#0x2000
        0x00001e56:    7800        .x      LDRB     r0,[r0,#0]
        0x00001e58:    2805        .(      CMP      r0,#5
        0x00001e5a:    d113        ..      BNE      0x1e84 ; UART1_IRQHandler + 556
        0x00001e5c:    e7ff        ..      B        0x1e5e ; UART1_IRQHandler + 518
        0x00001e5e:    f89d0013    ....    LDRB     r0,[sp,#0x13]
        0x00001e62:    280b        .(      CMP      r0,#0xb
        0x00001e64:    d10d        ..      BNE      0x1e82 ; UART1_IRQHandler + 554
        0x00001e66:    e7ff        ..      B        0x1e68 ; UART1_IRQHandler + 528
        0x00001e68:    f2400130    @.0.    MOVW     r1,#0x30
        0x00001e6c:    f2c20100    ....    MOVT     r1,#0x2000
        0x00001e70:    2006        .       MOVS     r0,#6
        0x00001e72:    7008        .p      STRB     r0,[r1,#0]
        0x00001e74:    f240110f    @...    MOV      r1,#0x10f
        0x00001e78:    f2c20100    ....    MOVT     r1,#0x2000
        0x00001e7c:    2001        .       MOVS     r0,#1
        0x00001e7e:    7008        .p      STRB     r0,[r1,#0]
        0x00001e80:    e7ff        ..      B        0x1e82 ; UART1_IRQHandler + 554
        0x00001e82:    e0b6        ..      B        0x1ff2 ; UART1_IRQHandler + 922
        0x00001e84:    f2400030    @.0.    MOVW     r0,#0x30
        0x00001e88:    f2c20000    ....    MOVT     r0,#0x2000
        0x00001e8c:    7800        .x      LDRB     r0,[r0,#0]
        0x00001e8e:    2806        .(      CMP      r0,#6
        0x00001e90:    d13b        ;.      BNE      0x1f0a ; UART1_IRQHandler + 690
        0x00001e92:    e7ff        ..      B        0x1e94 ; UART1_IRQHandler + 572
        0x00001e94:    f89d0013    ....    LDRB     r0,[sp,#0x13]
        0x00001e98:    4601        .F      MOV      r1,r0
        0x00001e9a:    9100        ..      STR      r1,[sp,#0]
        0x00001e9c:    b360        `.      CBZ      r0,0x1ef8 ; UART1_IRQHandler + 672
        0x00001e9e:    e7ff        ..      B        0x1ea0 ; UART1_IRQHandler + 584
        0x00001ea0:    9800        ..      LDR      r0,[sp,#0]
        0x00001ea2:    280d        .(      CMP      r0,#0xd
        0x00001ea4:    d01b        ..      BEQ      0x1ede ; UART1_IRQHandler + 646
        0x00001ea6:    e7ff        ..      B        0x1ea8 ; UART1_IRQHandler + 592
        0x00001ea8:    9800        ..      LDR      r0,[sp,#0]
        0x00001eaa:    2831        1(      CMP      r0,#0x31
        0x00001eac:    d00b        ..      BEQ      0x1ec6 ; UART1_IRQHandler + 622
        0x00001eae:    e7ff        ..      B        0x1eb0 ; UART1_IRQHandler + 600
        0x00001eb0:    9800        ..      LDR      r0,[sp,#0]
        0x00001eb2:    283a        :(      CMP      r0,#0x3a
        0x00001eb4:    d121        !.      BNE      0x1efa ; UART1_IRQHandler + 674
        0x00001eb6:    e7ff        ..      B        0x1eb8 ; UART1_IRQHandler + 608
        0x00001eb8:    f2400130    @.0.    MOVW     r1,#0x30
        0x00001ebc:    f2c20100    ....    MOVT     r1,#0x2000
        0x00001ec0:    2005        .       MOVS     r0,#5
        0x00001ec2:    7008        .p      STRB     r0,[r1,#0]
        0x00001ec4:    e020         .      B        0x1f08 ; UART1_IRQHandler + 688
        0x00001ec6:    f2400130    @.0.    MOVW     r1,#0x30
        0x00001eca:    f2c20100    ....    MOVT     r1,#0x2000
        0x00001ece:    2001        .       MOVS     r0,#1
        0x00001ed0:    7008        .p      STRB     r0,[r1,#0]
        0x00001ed2:    f240110f    @...    MOV      r1,#0x10f
        0x00001ed6:    f2c20100    ....    MOVT     r1,#0x2000
        0x00001eda:    7008        .p      STRB     r0,[r1,#0]
        0x00001edc:    e014        ..      B        0x1f08 ; UART1_IRQHandler + 688
        0x00001ede:    f2400130    @.0.    MOVW     r1,#0x30
        0x00001ee2:    f2c20100    ....    MOVT     r1,#0x2000
        0x00001ee6:    2007        .       MOVS     r0,#7
        0x00001ee8:    7008        .p      STRB     r0,[r1,#0]
        0x00001eea:    f2401100    @...    MOVW     r1,#0x100
        0x00001eee:    f2c20100    ....    MOVT     r1,#0x2000
        0x00001ef2:    2000        .       MOVS     r0,#0
        0x00001ef4:    7008        .p      STRB     r0,[r1,#0]
        0x00001ef6:    e007        ..      B        0x1f08 ; UART1_IRQHandler + 688
        0x00001ef8:    e006        ..      B        0x1f08 ; UART1_IRQHandler + 688
        0x00001efa:    f2401110    @...    MOVW     r1,#0x110
        0x00001efe:    f2c20100    ....    MOVT     r1,#0x2000
        0x00001f02:    2001        .       MOVS     r0,#1
        0x00001f04:    7008        .p      STRB     r0,[r1,#0]
        0x00001f06:    e7ff        ..      B        0x1f08 ; UART1_IRQHandler + 688
        0x00001f08:    e072        r.      B        0x1ff0 ; UART1_IRQHandler + 920
        0x00001f0a:    f2400030    @.0.    MOVW     r0,#0x30
        0x00001f0e:    f2c20000    ....    MOVT     r0,#0x2000
        0x00001f12:    7800        .x      LDRB     r0,[r0,#0]
        0x00001f14:    2807        .(      CMP      r0,#7
        0x00001f16:    d16a        j.      BNE      0x1fee ; UART1_IRQHandler + 918
        0x00001f18:    e7ff        ..      B        0x1f1a ; UART1_IRQHandler + 706
        0x00001f1a:    f2401000    @...    MOVW     r0,#0x100
        0x00001f1e:    f2c20000    ....    MOVT     r0,#0x2000
        0x00001f22:    7800        .x      LDRB     r0,[r0,#0]
        0x00001f24:    2825        %(      CMP      r0,#0x25
        0x00001f26:    dc61        a.      BGT      0x1fec ; UART1_IRQHandler + 916
        0x00001f28:    e7ff        ..      B        0x1f2a ; UART1_IRQHandler + 722
        0x00001f2a:    f89d1013    ....    LDRB     r1,[sp,#0x13]
        0x00001f2e:    f2401000    @...    MOVW     r0,#0x100
        0x00001f32:    f2c20000    ....    MOVT     r0,#0x2000
        0x00001f36:    7803        .x      LDRB     r3,[r0,#0]
        0x00001f38:    1c5a        Z.      ADDS     r2,r3,#1
        0x00001f3a:    7002        .p      STRB     r2,[r0,#0]
        0x00001f3c:    f2400278    @.x.    MOVW     r2,#0x78
        0x00001f40:    f2c20200    ....    MOVT     r2,#0x2000
        0x00001f44:    54d1        .T      STRB     r1,[r2,r3]
        0x00001f46:    7800        .x      LDRB     r0,[r0,#0]
        0x00001f48:    2826        &(      CMP      r0,#0x26
        0x00001f4a:    d14e        N.      BNE      0x1fea ; UART1_IRQHandler + 914
        0x00001f4c:    e7ff        ..      B        0x1f4e ; UART1_IRQHandler + 758
        0x00001f4e:    f2400130    @.0.    MOVW     r1,#0x30
        0x00001f52:    f2c20100    ....    MOVT     r1,#0x2000
        0x00001f56:    2006        .       MOVS     r0,#6
        0x00001f58:    7008        .p      STRB     r0,[r1,#0]
        0x00001f5a:    f2400078    @.x.    MOVW     r0,#0x78
        0x00001f5e:    f2c20000    ....    MOVT     r0,#0x2000
        0x00001f62:    7800        .x      LDRB     r0,[r0,#0]
        0x00001f64:    2802        .(      CMP      r0,#2
        0x00001f66:    d138        8.      BNE      0x1fda ; UART1_IRQHandler + 898
        0x00001f68:    e7ff        ..      B        0x1f6a ; UART1_IRQHandler + 786
        0x00001f6a:    f2400078    @.x.    MOVW     r0,#0x78
        0x00001f6e:    f2c20000    ....    MOVT     r0,#0x2000
        0x00001f72:    7840        @x      LDRB     r0,[r0,#1]
        0x00001f74:    2802        .(      CMP      r0,#2
        0x00001f76:    d130        0.      BNE      0x1fda ; UART1_IRQHandler + 898
        0x00001f78:    e7ff        ..      B        0x1f7a ; UART1_IRQHandler + 802
        0x00001f7a:    f2400078    @.x.    MOVW     r0,#0x78
        0x00001f7e:    f2c20000    ....    MOVT     r0,#0x2000
        0x00001f82:    f8900022    ..".    LDRB     r0,[r0,#0x22]
        0x00001f86:    2803        .(      CMP      r0,#3
        0x00001f88:    d127        '.      BNE      0x1fda ; UART1_IRQHandler + 898
        0x00001f8a:    e7ff        ..      B        0x1f8c ; UART1_IRQHandler + 820
        0x00001f8c:    f2400078    @.x.    MOVW     r0,#0x78
        0x00001f90:    f2c20000    ....    MOVT     r0,#0x2000
        0x00001f94:    f8900023    ..#.    LDRB     r0,[r0,#0x23]
        0x00001f98:    28ff        .(      CMP      r0,#0xff
        0x00001f9a:    d11e        ..      BNE      0x1fda ; UART1_IRQHandler + 898
        0x00001f9c:    e7ff        ..      B        0x1f9e ; UART1_IRQHandler + 838
        0x00001f9e:    f2400078    @.x.    MOVW     r0,#0x78
        0x00001fa2:    f2c20000    ....    MOVT     r0,#0x2000
        0x00001fa6:    f8900024    ..$.    LDRB     r0,[r0,#0x24]
        0x00001faa:    2803        .(      CMP      r0,#3
        0x00001fac:    d115        ..      BNE      0x1fda ; UART1_IRQHandler + 898
        0x00001fae:    e7ff        ..      B        0x1fb0 ; UART1_IRQHandler + 856
        0x00001fb0:    f2400078    @.x.    MOVW     r0,#0x78
        0x00001fb4:    f2c20000    ....    MOVT     r0,#0x2000
        0x00001fb8:    f8900025    ..%.    LDRB     r0,[r0,#0x25]
        0x00001fbc:    28ff        .(      CMP      r0,#0xff
        0x00001fbe:    d10c        ..      BNE      0x1fda ; UART1_IRQHandler + 898
        0x00001fc0:    e7ff        ..      B        0x1fc2 ; UART1_IRQHandler + 874
        0x00001fc2:    f240019e    @...    MOVW     r1,#0x9e
        0x00001fc6:    f2c20100    ....    MOVT     r1,#0x2000
        0x00001fca:    2001        .       MOVS     r0,#1
        0x00001fcc:    7008        .p      STRB     r0,[r1,#0]
        0x00001fce:    f240110f    @...    MOV      r1,#0x10f
        0x00001fd2:    f2c20100    ....    MOVT     r1,#0x2000
        0x00001fd6:    7008        .p      STRB     r0,[r1,#0]
        0x00001fd8:    e006        ..      B        0x1fe8 ; UART1_IRQHandler + 912
        0x00001fda:    f2401110    @...    MOVW     r1,#0x110
        0x00001fde:    f2c20100    ....    MOVT     r1,#0x2000
        0x00001fe2:    2001        .       MOVS     r0,#1
        0x00001fe4:    7008        .p      STRB     r0,[r1,#0]
        0x00001fe6:    e7ff        ..      B        0x1fe8 ; UART1_IRQHandler + 912
        0x00001fe8:    e7ff        ..      B        0x1fea ; UART1_IRQHandler + 914
        0x00001fea:    e7ff        ..      B        0x1fec ; UART1_IRQHandler + 916
        0x00001fec:    e7ff        ..      B        0x1fee ; UART1_IRQHandler + 918
        0x00001fee:    e7ff        ..      B        0x1ff0 ; UART1_IRQHandler + 920
        0x00001ff0:    e7ff        ..      B        0x1ff2 ; UART1_IRQHandler + 922
        0x00001ff2:    e7ff        ..      B        0x1ff4 ; UART1_IRQHandler + 924
        0x00001ff4:    e7ff        ..      B        0x1ff6 ; UART1_IRQHandler + 926
        0x00001ff6:    e644        D.      B        0x1c82 ; UART1_IRQHandler + 42
        0x00001ff8:    e7ff        ..      B        0x1ffa ; UART1_IRQHandler + 930
        0x00001ffa:    b005        ..      ADD      sp,sp,#0x14
        0x00001ffc:    4770        pG      BX       lr
        0x00001ffe:    0000        ..      MOVS     r0,r0
    UART1_Init
        0x00002000:    b580        ..      PUSH     {r7,lr}
        0x00002002:    2011        .       MOVS     r0,#0x11
        0x00002004:    f2c04000    ...@    MOVT     r0,#0x400
        0x00002008:    f7fffbe8    ....    BL       SYS_ResetModule ; 0x17dc
        0x0000200c:    f2410000    A...    MOVW     r0,#0x1000
        0x00002010:    f2c40007    ....    MOVT     r0,#0x4007
        0x00002014:    f44f5116    O..Q    MOV      r1,#0x2580
        0x00002018:    f000f80c    ....    BL       UART_Open ; 0x2034
        0x0000201c:    bd80        ..      POP      {r7,pc}
        0x0000201e:    0000        ..      MOVS     r0,r0
    UART_EnableInt
        0x00002020:    b082        ..      SUB      sp,sp,#8
        0x00002022:    9001        ..      STR      r0,[sp,#4]
        0x00002024:    9100        ..      STR      r1,[sp,#0]
        0x00002026:    9a00        ..      LDR      r2,[sp,#0]
        0x00002028:    9901        ..      LDR      r1,[sp,#4]
        0x0000202a:    6848        Hh      LDR      r0,[r1,#4]
        0x0000202c:    4310        .C      ORRS     r0,r0,r2
        0x0000202e:    6048        H`      STR      r0,[r1,#4]
        0x00002030:    b002        ..      ADD      sp,sp,#8
        0x00002032:    4770        pG      BX       lr
    UART_Open
        0x00002034:    b580        ..      PUSH     {r7,lr}
        0x00002036:    b088        ..      SUB      sp,sp,#0x20
        0x00002038:    9007        ..      STR      r0,[sp,#0x1c]
        0x0000203a:    9106        ..      STR      r1,[sp,#0x18]
        0x0000203c:    f2480000    H...    MOVW     r0,#0x8000
        0x00002040:    f2c01051    ..Q.    MOVT     r0,#0x151
        0x00002044:    9004        ..      STR      r0,[sp,#0x10]
        0x00002046:    f44f4000    O..@    MOV      r0,#0x8000
        0x0000204a:    9003        ..      STR      r0,[sp,#0xc]
        0x0000204c:    2000        .       MOVS     r0,#0
        0x0000204e:    9002        ..      STR      r0,[sp,#8]
        0x00002050:    f2424100    B..A    MOVW     r1,#0x2400
        0x00002054:    f2c001f4    ....    MOVT     r1,#0xf4
        0x00002058:    9101        ..      STR      r1,[sp,#4]
        0x0000205a:    9000        ..      STR      r0,[sp,#0]
        0x0000205c:    f2402114    @..!    MOVW     r1,#0x214
        0x00002060:    f2c40100    ....    MOVT     r1,#0x4000
        0x00002064:    6809        .h      LDR      r1,[r1,#0]
        0x00002066:    f3c16101    ...a    UBFX     r1,r1,#24,#2
        0x0000206a:    f88d1017    ....    STRB     r1,[sp,#0x17]
        0x0000206e:    f2402120    @. !    MOVW     r1,#0x220
        0x00002072:    f2c40100    ....    MOVT     r1,#0x4000
        0x00002076:    6809        .h      LDR      r1,[r1,#0]
        0x00002078:    f3c12103    ...!    UBFX     r1,r1,#8,#4
        0x0000207c:    f88d1016    ....    STRB     r1,[sp,#0x16]
        0x00002080:    9907        ..      LDR      r1,[sp,#0x1c]
        0x00002082:    6308        .c      STR      r0,[r1,#0x30]
        0x00002084:    9907        ..      LDR      r1,[sp,#0x1c]
        0x00002086:    2003        .       MOVS     r0,#3
        0x00002088:    60c8        .`      STR      r0,[r1,#0xc]
        0x0000208a:    9907        ..      LDR      r1,[sp,#0x1c]
        0x0000208c:    6888        .h      LDR      r0,[r1,#8]
        0x0000208e:    f64f720f    O..r    MOV      r2,#0xff0f
        0x00002092:    f6cf72f0    ...r    MOVT     r2,#0xfff0
        0x00002096:    4010        .@      ANDS     r0,r0,r2
        0x00002098:    6088        .`      STR      r0,[r1,#8]
        0x0000209a:    f89d0017    ....    LDRB     r0,[sp,#0x17]
        0x0000209e:    2801        .(      CMP      r0,#1
        0x000020a0:    d108        ..      BNE      0x20b4 ; UART_Open + 128
        0x000020a2:    e7ff        ..      B        0x20a4 ; UART_Open + 112
        0x000020a4:    f7fefd7c    ..|.    BL       CLK_GetPLLClockFreq ; 0xba0
        0x000020a8:    f89d2017    ...     LDRB     r2,[sp,#0x17]
        0x000020ac:    a901        ..      ADD      r1,sp,#4
        0x000020ae:    f8410022    A.".    STR      r0,[r1,r2,LSL #2]
        0x000020b2:    e7ff        ..      B        0x20b4 ; UART_Open + 128
        0x000020b4:    9806        ..      LDR      r0,[sp,#0x18]
        0x000020b6:    b398        ..      CBZ      r0,0x2120 ; UART_Open + 236
        0x000020b8:    e7ff        ..      B        0x20ba ; UART_Open + 134
        0x000020ba:    f89d1017    ....    LDRB     r1,[sp,#0x17]
        0x000020be:    a801        ..      ADD      r0,sp,#4
        0x000020c0:    f8500021    P.!.    LDR      r0,[r0,r1,LSL #2]
        0x000020c4:    f89d1016    ....    LDRB     r1,[sp,#0x16]
        0x000020c8:    3101        .1      ADDS     r1,#1
        0x000020ca:    fbb0f0f1    ....    UDIV     r0,r0,r1
        0x000020ce:    9906        ..      LDR      r1,[sp,#0x18]
        0x000020d0:    eb000051    ..Q.    ADD      r0,r0,r1,LSR #1
        0x000020d4:    fbb0f0f1    ....    UDIV     r0,r0,r1
        0x000020d8:    3802        .8      SUBS     r0,#2
        0x000020da:    9000        ..      STR      r0,[sp,#0]
        0x000020dc:    9800        ..      LDR      r0,[sp,#0]
        0x000020de:    f5b03f80    ...?    CMP      r0,#0x10000
        0x000020e2:    d316        ..      BCC      0x2112 ; UART_Open + 222
        0x000020e4:    e7ff        ..      B        0x20e6 ; UART_Open + 178
        0x000020e6:    f89d1017    ....    LDRB     r1,[sp,#0x17]
        0x000020ea:    a801        ..      ADD      r0,sp,#4
        0x000020ec:    f8500021    P.!.    LDR      r0,[r0,r1,LSL #2]
        0x000020f0:    f89d1016    ....    LDRB     r1,[sp,#0x16]
        0x000020f4:    3101        .1      ADDS     r1,#1
        0x000020f6:    fbb0f0f1    ....    UDIV     r0,r0,r1
        0x000020fa:    9906        ..      LDR      r1,[sp,#0x18]
        0x000020fc:    eb0000c1    ....    ADD      r0,r0,r1,LSL #3
        0x00002100:    fbb0f1f1    ....    UDIV     r1,r0,r1
        0x00002104:    f06f0001    o...    MVN      r0,#1
        0x00002108:    eb001011    ....    ADD      r0,r0,r1,LSR #4
        0x0000210c:    9907        ..      LDR      r1,[sp,#0x1c]
        0x0000210e:    6248        Hb      STR      r0,[r1,#0x24]
        0x00002110:    e005        ..      B        0x211e ; UART_Open + 234
        0x00002112:    9800        ..      LDR      r0,[sp,#0]
        0x00002114:    f0405040    @.@P    ORR      r0,r0,#0x30000000
        0x00002118:    9907        ..      LDR      r1,[sp,#0x1c]
        0x0000211a:    6248        Hb      STR      r0,[r1,#0x24]
        0x0000211c:    e7ff        ..      B        0x211e ; UART_Open + 234
        0x0000211e:    e7ff        ..      B        0x2120 ; UART_Open + 236
        0x00002120:    b008        ..      ADD      sp,sp,#0x20
        0x00002122:    bd80        ..      POP      {r7,pc}
    UART_Write
        0x00002124:    b086        ..      SUB      sp,sp,#0x18
        0x00002126:    9005        ..      STR      r0,[sp,#0x14]
        0x00002128:    9104        ..      STR      r1,[sp,#0x10]
        0x0000212a:    9203        ..      STR      r2,[sp,#0xc]
        0x0000212c:    2000        .       MOVS     r0,#0
        0x0000212e:    9000        ..      STR      r0,[sp,#0]
        0x00002130:    9002        ..      STR      r0,[sp,#8]
        0x00002132:    e7ff        ..      B        0x2134 ; UART_Write + 16
        0x00002134:    9802        ..      LDR      r0,[sp,#8]
        0x00002136:    9903        ..      LDR      r1,[sp,#0xc]
        0x00002138:    4288        .B      CMP      r0,r1
        0x0000213a:    d025        %.      BEQ      0x2188 ; UART_Write + 100
        0x0000213c:    e7ff        ..      B        0x213e ; UART_Write + 26
        0x0000213e:    2000        .       MOVS     r0,#0
        0x00002140:    9001        ..      STR      r0,[sp,#4]
        0x00002142:    e7ff        ..      B        0x2144 ; UART_Write + 32
        0x00002144:    9805        ..      LDR      r0,[sp,#0x14]
        0x00002146:    6980        .i      LDR      r0,[r0,#0x18]
        0x00002148:    0200        ..      LSLS     r0,r0,#8
        0x0000214a:    2800        .(      CMP      r0,#0
        0x0000214c:    d50c        ..      BPL      0x2168 ; UART_Write + 68
        0x0000214e:    e7ff        ..      B        0x2150 ; UART_Write + 44
        0x00002150:    9801        ..      LDR      r0,[sp,#4]
        0x00002152:    3001        .0      ADDS     r0,#1
        0x00002154:    9001        ..      STR      r0,[sp,#4]
        0x00002156:    9801        ..      LDR      r0,[sp,#4]
        0x00002158:    f1b04f80    ...O    CMP      r0,#0x40000000
        0x0000215c:    d303        ..      BCC      0x2166 ; UART_Write + 66
        0x0000215e:    e7ff        ..      B        0x2160 ; UART_Write + 60
        0x00002160:    2001        .       MOVS     r0,#1
        0x00002162:    9000        ..      STR      r0,[sp,#0]
        0x00002164:    e000        ..      B        0x2168 ; UART_Write + 68
        0x00002166:    e7ed        ..      B        0x2144 ; UART_Write + 32
        0x00002168:    9800        ..      LDR      r0,[sp,#0]
        0x0000216a:    2801        .(      CMP      r0,#1
        0x0000216c:    d101        ..      BNE      0x2172 ; UART_Write + 78
        0x0000216e:    e7ff        ..      B        0x2170 ; UART_Write + 76
        0x00002170:    e00a        ..      B        0x2188 ; UART_Write + 100
        0x00002172:    9804        ..      LDR      r0,[sp,#0x10]
        0x00002174:    9902        ..      LDR      r1,[sp,#8]
        0x00002176:    5c40        @\      LDRB     r0,[r0,r1]
        0x00002178:    9905        ..      LDR      r1,[sp,#0x14]
        0x0000217a:    6008        .`      STR      r0,[r1,#0]
        0x0000217c:    e7ff        ..      B        0x217e ; UART_Write + 90
        0x0000217e:    e7ff        ..      B        0x2180 ; UART_Write + 92
        0x00002180:    9802        ..      LDR      r0,[sp,#8]
        0x00002182:    3001        .0      ADDS     r0,#1
        0x00002184:    9002        ..      STR      r0,[sp,#8]
        0x00002186:    e7d5        ..      B        0x2134 ; UART_Write + 16
        0x00002188:    9802        ..      LDR      r0,[sp,#8]
        0x0000218a:    b006        ..      ADD      sp,sp,#0x18
        0x0000218c:    4770        pG      BX       lr
        0x0000218e:    0000        ..      MOVS     r0,r0
    VerifyData
        0x00002190:    b580        ..      PUSH     {r7,lr}
        0x00002192:    b086        ..      SUB      sp,sp,#0x18
        0x00002194:    9004        ..      STR      r0,[sp,#0x10]
        0x00002196:    9103        ..      STR      r1,[sp,#0xc]
        0x00002198:    9202        ..      STR      r2,[sp,#8]
        0x0000219a:    9804        ..      LDR      r0,[sp,#0x10]
        0x0000219c:    9001        ..      STR      r0,[sp,#4]
        0x0000219e:    e7ff        ..      B        0x21a0 ; VerifyData + 16
        0x000021a0:    9801        ..      LDR      r0,[sp,#4]
        0x000021a2:    9903        ..      LDR      r1,[sp,#0xc]
        0x000021a4:    4288        .B      CMP      r0,r1
        0x000021a6:    d212        ..      BCS      0x21ce ; VerifyData + 62
        0x000021a8:    e7ff        ..      B        0x21aa ; VerifyData + 26
        0x000021aa:    9801        ..      LDR      r0,[sp,#4]
        0x000021ac:    f7feff5e    ..^.    BL       FMC_Read ; 0x106c
        0x000021b0:    9000        ..      STR      r0,[sp,#0]
        0x000021b2:    9800        ..      LDR      r0,[sp,#0]
        0x000021b4:    9902        ..      LDR      r1,[sp,#8]
        0x000021b6:    4288        .B      CMP      r0,r1
        0x000021b8:    d004        ..      BEQ      0x21c4 ; VerifyData + 52
        0x000021ba:    e7ff        ..      B        0x21bc ; VerifyData + 44
        0x000021bc:    f04f30ff    O..0    MOV      r0,#0xffffffff
        0x000021c0:    9005        ..      STR      r0,[sp,#0x14]
        0x000021c2:    e007        ..      B        0x21d4 ; VerifyData + 68
        0x000021c4:    e7ff        ..      B        0x21c6 ; VerifyData + 54
        0x000021c6:    9801        ..      LDR      r0,[sp,#4]
        0x000021c8:    3004        .0      ADDS     r0,#4
        0x000021ca:    9001        ..      STR      r0,[sp,#4]
        0x000021cc:    e7e8        ..      B        0x21a0 ; VerifyData + 16
        0x000021ce:    2000        .       MOVS     r0,#0
        0x000021d0:    9005        ..      STR      r0,[sp,#0x14]
        0x000021d2:    e7ff        ..      B        0x21d4 ; VerifyData + 68
        0x000021d4:    9805        ..      LDR      r0,[sp,#0x14]
        0x000021d6:    b006        ..      ADD      sp,sp,#0x18
        0x000021d8:    bd80        ..      POP      {r7,pc}
        0x000021da:    0000        ..      MOVS     r0,r0
    WDT_EnableInt
        0x000021dc:    2100        .!      MOVS     r1,#0
        0x000021de:    f2c40104    ....    MOVT     r1,#0x4004
        0x000021e2:    6808        .h      LDR      r0,[r1,#0]
        0x000021e4:    f0400040    @.@.    ORR      r0,r0,#0x40
        0x000021e8:    6008        .`      STR      r0,[r1,#0]
        0x000021ea:    4770        pG      BX       lr
    WDT_IRQHandler
        0x000021ec:    4770        pG      BX       lr
        0x000021ee:    0000        ..      MOVS     r0,r0
    WDT_Open
        0x000021f0:    b084        ..      SUB      sp,sp,#0x10
        0x000021f2:    9003        ..      STR      r0,[sp,#0xc]
        0x000021f4:    9102        ..      STR      r1,[sp,#8]
        0x000021f6:    9201        ..      STR      r2,[sp,#4]
        0x000021f8:    9300        ..      STR      r3,[sp,#0]
        0x000021fa:    9802        ..      LDR      r0,[sp,#8]
        0x000021fc:    2104        .!      MOVS     r1,#4
        0x000021fe:    f2c40104    ....    MOVT     r1,#0x4004
        0x00002202:    6008        .`      STR      r0,[r1,#0]
        0x00002204:    9803        ..      LDR      r0,[sp,#0xc]
        0x00002206:    9901        ..      LDR      r1,[sp,#4]
        0x00002208:    ea400041    @.A.    ORR      r0,r0,r1,LSL #1
        0x0000220c:    9900        ..      LDR      r1,[sp,#0]
        0x0000220e:    ea401001    @...    ORR      r0,r0,r1,LSL #4
        0x00002212:    f0400080    @...    ORR      r0,r0,#0x80
        0x00002216:    2100        .!      MOVS     r1,#0
        0x00002218:    f2c40104    ....    MOVT     r1,#0x4004
        0x0000221c:    6008        .`      STR      r0,[r1,#0]
        0x0000221e:    b004        ..      ADD      sp,sp,#0x10
        0x00002220:    4770        pG      BX       lr
        0x00002222:    0000        ..      MOVS     r0,r0
    WDT_rst
        0x00002224:    b580        ..      PUSH     {r7,lr}
        0x00002226:    f7fffb17    ....    BL       SYS_UnlockReg ; 0x1858
        0x0000222a:    2100        .!      MOVS     r1,#0
        0x0000222c:    f2c40104    ....    MOVT     r1,#0x4004
        0x00002230:    6808        .h      LDR      r0,[r1,#0]
        0x00002232:    f0400001    @...    ORR      r0,r0,#1
        0x00002236:    f020002c     .,.    BIC      r0,r0,#0x2c
        0x0000223a:    6008        .`      STR      r0,[r1,#0]
        0x0000223c:    f7fffabe    ....    BL       SYS_LockReg ; 0x17bc
        0x00002240:    bd80        ..      POP      {r7,pc}
        0x00002242:    0000        ..      MOVS     r0,r0
    __NVIC_EnableIRQ
        0x00002244:    b081        ..      SUB      sp,sp,#4
        0x00002246:    f88d0003    ....    STRB     r0,[sp,#3]
        0x0000224a:    f99d0003    ....    LDRSB    r0,[sp,#3]
        0x0000224e:    2800        .(      CMP      r0,#0
        0x00002250:    d40e        ..      BMI      0x2270 ; __NVIC_EnableIRQ + 44
        0x00002252:    e7ff        ..      B        0x2254 ; __NVIC_EnableIRQ + 16
        0x00002254:    f99d1003    ....    LDRSB    r1,[sp,#3]
        0x00002258:    f001021f    ....    AND      r2,r1,#0x1f
        0x0000225c:    2001        .       MOVS     r0,#1
        0x0000225e:    4090        .@      LSLS     r0,r0,r2
        0x00002260:    094a        J.      LSRS     r2,r1,#5
        0x00002262:    f24e1100    N...    MOVW     r1,#0xe100
        0x00002266:    f2ce0100    ....    MOVT     r1,#0xe000
        0x0000226a:    f8410022    A.".    STR      r0,[r1,r2,LSL #2]
        0x0000226e:    e7ff        ..      B        0x2270 ; __NVIC_EnableIRQ + 44
        0x00002270:    b001        ..      ADD      sp,sp,#4
        0x00002272:    4770        pG      BX       lr
    adc_read
        0x00002274:    b580        ..      PUSH     {r7,lr}
        0x00002276:    b086        ..      SUB      sp,sp,#0x18
        0x00002278:    f88d0013    ....    STRB     r0,[sp,#0x13]
        0x0000227c:    f2430000    C...    MOVW     r0,#0x3000
        0x00002280:    f2c40004    ....    MOVT     r0,#0x4004
        0x00002284:    9001        ..      STR      r0,[sp,#4]
        0x00002286:    2100        .!      MOVS     r1,#0
        0x00002288:    9102        ..      STR      r1,[sp,#8]
        0x0000228a:    f7fefe2d    ..-.    BL       EADC_Open ; 0xee8
        0x0000228e:    9801        ..      LDR      r0,[sp,#4]
        0x00002290:    2106        .!      MOVS     r1,#6
        0x00002292:    f7fefe3b    ..;.    BL       EADC_SetInternalSampleTime ; 0xf0c
        0x00002296:    9801        ..      LDR      r0,[sp,#4]
        0x00002298:    9a02        ..      LDR      r2,[sp,#8]
        0x0000229a:    f89d3013    ...0    LDRB     r3,[sp,#0x13]
        0x0000229e:    4611        .F      MOV      r1,r2
        0x000022a0:    f7fefe00    ....    BL       EADC_ConfigSampleModule ; 0xea4
        0x000022a4:    f24301f8    C...    MOV      r1,#0x30f8
        0x000022a8:    f2c40104    ....    MOVT     r1,#0x4004
        0x000022ac:    2001        .       MOVS     r0,#1
        0x000022ae:    9003        ..      STR      r0,[sp,#0xc]
        0x000022b0:    6008        .`      STR      r0,[r1,#0]
        0x000022b2:    f2430150    C.P.    MOV      r1,#0x3050
        0x000022b6:    f2c40104    ....    MOVT     r1,#0x4004
        0x000022ba:    6808        .h      LDR      r0,[r1,#0]
        0x000022bc:    f0400004    @...    ORR      r0,r0,#4
        0x000022c0:    6008        .`      STR      r0,[r1,#0]
        0x000022c2:    f24301d0    C...    MOV      r1,#0x30d0
        0x000022c6:    f2c40104    ....    MOVT     r1,#0x4004
        0x000022ca:    6808        .h      LDR      r0,[r1,#0]
        0x000022cc:    f0400001    @...    ORR      r0,r0,#1
        0x000022d0:    6008        .`      STR      r0,[r1,#0]
        0x000022d2:    202a        *       MOVS     r0,#0x2a
        0x000022d4:    f7ffffb6    ....    BL       __NVIC_EnableIRQ ; 0x2244
        0x000022d8:    9902        ..      LDR      r1,[sp,#8]
        0x000022da:    9803        ..      LDR      r0,[sp,#0xc]
        0x000022dc:    f2401208    @...    MOVW     r2,#0x108
        0x000022e0:    f2c20200    ....    MOVT     r2,#0x2000
        0x000022e4:    6011        .`      STR      r1,[r2,#0]
        0x000022e6:    f2430154    C.T.    MOV      r1,#0x3054
        0x000022ea:    f2c40104    ....    MOVT     r1,#0x4004
        0x000022ee:    6008        .`      STR      r0,[r1,#0]
        0x000022f0:    f2400008    @...    MOVW     r0,#8
        0x000022f4:    f2c20000    ....    MOVT     r0,#0x2000
        0x000022f8:    6800        .h      LDR      r0,[r0,#0]
        0x000022fa:    f2407120    @. q    MOVW     r1,#0x720
        0x000022fe:    f2c20100    ....    MOVT     r1,#0x2000
        0x00002302:    6008        .`      STR      r0,[r1,#0]
        0x00002304:    e7ff        ..      B        0x2306 ; adc_read + 146
        0x00002306:    f2401008    @...    MOVW     r0,#0x108
        0x0000230a:    f2c20000    ....    MOVT     r0,#0x2000
        0x0000230e:    6800        .h      LDR      r0,[r0,#0]
        0x00002310:    b970        p.      CBNZ     r0,0x2330 ; adc_read + 188
        0x00002312:    e7ff        ..      B        0x2314 ; adc_read + 160
        0x00002314:    f2407120    @. q    MOVW     r1,#0x720
        0x00002318:    f2c20100    ....    MOVT     r1,#0x2000
        0x0000231c:    6808        .h      LDR      r0,[r1,#0]
        0x0000231e:    3801        .8      SUBS     r0,#1
        0x00002320:    6008        .`      STR      r0,[r1,#0]
        0x00002322:    b920         .      CBNZ     r0,0x232e ; adc_read + 186
        0x00002324:    e7ff        ..      B        0x2326 ; adc_read + 178
        0x00002326:    f04f30ff    O..0    MOV      r0,#0xffffffff
        0x0000232a:    9005        ..      STR      r0,[sp,#0x14]
        0x0000232c:    e010        ..      B        0x2350 ; adc_read + 220
        0x0000232e:    e7ea        ..      B        0x2306 ; adc_read + 146
        0x00002330:    f2430150    C.P.    MOV      r1,#0x3050
        0x00002334:    f2c40104    ....    MOVT     r1,#0x4004
        0x00002338:    6808        .h      LDR      r0,[r1,#0]
        0x0000233a:    f0200004     ...    BIC      r0,r0,#4
        0x0000233e:    6008        .`      STR      r0,[r1,#0]
        0x00002340:    f2430000    C...    MOVW     r0,#0x3000
        0x00002344:    f2c40004    ....    MOVT     r0,#0x4004
        0x00002348:    6800        .h      LDR      r0,[r0,#0]
        0x0000234a:    b280        ..      UXTH     r0,r0
        0x0000234c:    9005        ..      STR      r0,[sp,#0x14]
        0x0000234e:    e7ff        ..      B        0x2350 ; adc_read + 220
        0x00002350:    9805        ..      LDR      r0,[sp,#0x14]
        0x00002352:    b006        ..      ADD      sp,sp,#0x18
        0x00002354:    bd80        ..      POP      {r7,pc}
        0x00002356:    0000        ..      MOVS     r0,r0
    calibratePoint
        0x00002358:    b580        ..      PUSH     {r7,lr}
        0x0000235a:    b08c        ..      SUB      sp,sp,#0x30
        0x0000235c:    900a        ..      STR      r0,[sp,#0x28]
        0x0000235e:    9309        ..      STR      r3,[sp,#0x24]
        0x00002360:    9108        ..      STR      r1,[sp,#0x20]
        0x00002362:    9207        ..      STR      r2,[sp,#0x1c]
        0x00002364:    f8bd0028    ..(.    LDRH     r0,[sp,#0x28]
        0x00002368:    f8ad001a    ....    STRH     r0,[sp,#0x1a]
        0x0000236c:    9908        ..      LDR      r1,[sp,#0x20]
        0x0000236e:    f9b10000    ....    LDRSH    r0,[r1,#0]
        0x00002372:    f9b11008    ....    LDRSH    r1,[r1,#8]
        0x00002376:    4408        .D      ADD      r0,r0,r1
        0x00002378:    eb0070d0    ...p    ADD      r0,r0,r0,LSR #31
        0x0000237c:    0840        @.      LSRS     r0,r0,#1
        0x0000237e:    f8ad0018    ....    STRH     r0,[sp,#0x18]
        0x00002382:    9908        ..      LDR      r1,[sp,#0x20]
        0x00002384:    f9b10004    ....    LDRSH    r0,[r1,#4]
        0x00002388:    f9b1100c    ....    LDRSH    r1,[r1,#0xc]
        0x0000238c:    4408        .D      ADD      r0,r0,r1
        0x0000238e:    eb0070d0    ...p    ADD      r0,r0,r0,LSR #31
        0x00002392:    0840        @.      LSRS     r0,r0,#1
        0x00002394:    f8ad0016    ....    STRH     r0,[sp,#0x16]
        0x00002398:    9907        ..      LDR      r1,[sp,#0x1c]
        0x0000239a:    f9b10000    ....    LDRSH    r0,[r1,#0]
        0x0000239e:    f9b11008    ....    LDRSH    r1,[r1,#8]
        0x000023a2:    4408        .D      ADD      r0,r0,r1
        0x000023a4:    eb0070d0    ...p    ADD      r0,r0,r0,LSR #31
        0x000023a8:    0840        @.      LSRS     r0,r0,#1
        0x000023aa:    f8ad0014    ....    STRH     r0,[sp,#0x14]
        0x000023ae:    9907        ..      LDR      r1,[sp,#0x1c]
        0x000023b0:    f9b10004    ....    LDRSH    r0,[r1,#4]
        0x000023b4:    f9b1100c    ....    LDRSH    r1,[r1,#0xc]
        0x000023b8:    4408        .D      ADD      r0,r0,r1
        0x000023ba:    eb0070d0    ...p    ADD      r0,r0,r0,LSR #31
        0x000023be:    0840        @.      LSRS     r0,r0,#1
        0x000023c0:    f8ad0012    ....    STRH     r0,[sp,#0x12]
        0x000023c4:    f9bd001a    ....    LDRSH    r0,[sp,#0x1a]
        0x000023c8:    f9bd1018    ....    LDRSH    r1,[sp,#0x18]
        0x000023cc:    f9bd2016    ...     LDRSH    r2,[sp,#0x16]
        0x000023d0:    f9bd3014    ...0    LDRSH    r3,[sp,#0x14]
        0x000023d4:    f9bdc012    ....    LDRSH    r12,[sp,#0x12]
        0x000023d8:    46ee        .F      MOV      lr,sp
        0x000023da:    f8cec000    ....    STR      r12,[lr,#0]
        0x000023de:    f000fb21    ..!.    BL       map ; 0x2a24
        0x000023e2:    f8ad0010    ....    STRH     r0,[sp,#0x10]
        0x000023e6:    f9bd0010    ....    LDRSH    r0,[sp,#0x10]
        0x000023ea:    f9bd1024    ..$.    LDRSH    r1,[sp,#0x24]
        0x000023ee:    4288        .B      CMP      r0,r1
        0x000023f0:    dd05        ..      BLE      0x23fe ; calibratePoint + 166
        0x000023f2:    e7ff        ..      B        0x23f4 ; calibratePoint + 156
        0x000023f4:    f8bd0024    ..$.    LDRH     r0,[sp,#0x24]
        0x000023f8:    f8ad0010    ....    STRH     r0,[sp,#0x10]
        0x000023fc:    e00a        ..      B        0x2414 ; calibratePoint + 188
        0x000023fe:    f9bd0010    ....    LDRSH    r0,[sp,#0x10]
        0x00002402:    f1b03fff    ...?    CMP      r0,#0xffffffff
        0x00002406:    dc04        ..      BGT      0x2412 ; calibratePoint + 186
        0x00002408:    e7ff        ..      B        0x240a ; calibratePoint + 178
        0x0000240a:    2000        .       MOVS     r0,#0
        0x0000240c:    f8ad0010    ....    STRH     r0,[sp,#0x10]
        0x00002410:    e7ff        ..      B        0x2412 ; calibratePoint + 186
        0x00002412:    e7ff        ..      B        0x2414 ; calibratePoint + 188
        0x00002414:    f8bd002a    ..*.    LDRH     r0,[sp,#0x2a]
        0x00002418:    f8ad000e    ....    STRH     r0,[sp,#0xe]
        0x0000241c:    9908        ..      LDR      r1,[sp,#0x20]
        0x0000241e:    f9b10002    ....    LDRSH    r0,[r1,#2]
        0x00002422:    f9b11006    ....    LDRSH    r1,[r1,#6]
        0x00002426:    4408        .D      ADD      r0,r0,r1
        0x00002428:    eb0070d0    ...p    ADD      r0,r0,r0,LSR #31
        0x0000242c:    0840        @.      LSRS     r0,r0,#1
        0x0000242e:    f8ad000c    ....    STRH     r0,[sp,#0xc]
        0x00002432:    9908        ..      LDR      r1,[sp,#0x20]
        0x00002434:    f9b1000a    ....    LDRSH    r0,[r1,#0xa]
        0x00002438:    f9b1100e    ....    LDRSH    r1,[r1,#0xe]
        0x0000243c:    4408        .D      ADD      r0,r0,r1
        0x0000243e:    eb0070d0    ...p    ADD      r0,r0,r0,LSR #31
        0x00002442:    0840        @.      LSRS     r0,r0,#1
        0x00002444:    f8ad000a    ....    STRH     r0,[sp,#0xa]
        0x00002448:    9907        ..      LDR      r1,[sp,#0x1c]
        0x0000244a:    f9b10002    ....    LDRSH    r0,[r1,#2]
        0x0000244e:    f9b11006    ....    LDRSH    r1,[r1,#6]
        0x00002452:    4408        .D      ADD      r0,r0,r1
        0x00002454:    eb0070d0    ...p    ADD      r0,r0,r0,LSR #31
        0x00002458:    0840        @.      LSRS     r0,r0,#1
        0x0000245a:    f8ad0008    ....    STRH     r0,[sp,#8]
        0x0000245e:    9907        ..      LDR      r1,[sp,#0x1c]
        0x00002460:    f9b1000a    ....    LDRSH    r0,[r1,#0xa]
        0x00002464:    f9b1100e    ....    LDRSH    r1,[r1,#0xe]
        0x00002468:    4408        .D      ADD      r0,r0,r1
        0x0000246a:    eb0070d0    ...p    ADD      r0,r0,r0,LSR #31
        0x0000246e:    0840        @.      LSRS     r0,r0,#1
        0x00002470:    f8ad0006    ....    STRH     r0,[sp,#6]
        0x00002474:    f9bd000e    ....    LDRSH    r0,[sp,#0xe]
        0x00002478:    f9bd100c    ....    LDRSH    r1,[sp,#0xc]
        0x0000247c:    f9bd200a    ...     LDRSH    r2,[sp,#0xa]
        0x00002480:    f9bd3008    ...0    LDRSH    r3,[sp,#8]
        0x00002484:    f9bdc006    ....    LDRSH    r12,[sp,#6]
        0x00002488:    46ee        .F      MOV      lr,sp
        0x0000248a:    f8cec000    ....    STR      r12,[lr,#0]
        0x0000248e:    f000fac9    ....    BL       map ; 0x2a24
        0x00002492:    f8ad0004    ....    STRH     r0,[sp,#4]
        0x00002496:    f9bd0004    ....    LDRSH    r0,[sp,#4]
        0x0000249a:    f9bd1026    ..&.    LDRSH    r1,[sp,#0x26]
        0x0000249e:    4288        .B      CMP      r0,r1
        0x000024a0:    dd05        ..      BLE      0x24ae ; calibratePoint + 342
        0x000024a2:    e7ff        ..      B        0x24a4 ; calibratePoint + 332
        0x000024a4:    f8bd0026    ..&.    LDRH     r0,[sp,#0x26]
        0x000024a8:    f8ad0004    ....    STRH     r0,[sp,#4]
        0x000024ac:    e00a        ..      B        0x24c4 ; calibratePoint + 364
        0x000024ae:    f9bd0004    ....    LDRSH    r0,[sp,#4]
        0x000024b2:    f1b03fff    ...?    CMP      r0,#0xffffffff
        0x000024b6:    dc04        ..      BGT      0x24c2 ; calibratePoint + 362
        0x000024b8:    e7ff        ..      B        0x24ba ; calibratePoint + 354
        0x000024ba:    2000        .       MOVS     r0,#0
        0x000024bc:    f8ad0004    ....    STRH     r0,[sp,#4]
        0x000024c0:    e7ff        ..      B        0x24c2 ; calibratePoint + 362
        0x000024c2:    e7ff        ..      B        0x24c4 ; calibratePoint + 364
        0x000024c4:    f8bd0010    ....    LDRH     r0,[sp,#0x10]
        0x000024c8:    f8ad002c    ..,.    STRH     r0,[sp,#0x2c]
        0x000024cc:    f8bd0004    ....    LDRH     r0,[sp,#4]
        0x000024d0:    f8ad002e    ....    STRH     r0,[sp,#0x2e]
        0x000024d4:    980b        ..      LDR      r0,[sp,#0x2c]
        0x000024d6:    b00c        ..      ADD      sp,sp,#0x30
        0x000024d8:    bd80        ..      POP      {r7,pc}
        0x000024da:    0000        ..      MOVS     r0,r0
    fputc
        0x000024dc:    b580        ..      PUSH     {r7,lr}
        0x000024de:    b082        ..      SUB      sp,sp,#8
        0x000024e0:    9001        ..      STR      r0,[sp,#4]
        0x000024e2:    9100        ..      STR      r1,[sp,#0]
        0x000024e4:    9801        ..      LDR      r0,[sp,#4]
        0x000024e6:    f7fff9d9    ....    BL       SendChar ; 0x189c
        0x000024ea:    9801        ..      LDR      r0,[sp,#4]
        0x000024ec:    b002        ..      ADD      sp,sp,#8
        0x000024ee:    bd80        ..      POP      {r7,pc}
    load_data
        0x000024f0:    b580        ..      PUSH     {r7,lr}
        0x000024f2:    b08e        ..      SUB      sp,sp,#0x38
        0x000024f4:    2000        .       MOVS     r0,#0
        0x000024f6:    f88d0037    ..7.    STRB     r0,[sp,#0x37]
        0x000024fa:    2024        $       MOVS     r0,#0x24
        0x000024fc:    f88d0036    ..6.    STRB     r0,[sp,#0x36]
        0x00002500:    f7fff9aa    ....    BL       SYS_UnlockReg ; 0x1858
        0x00002504:    f7fefda8    ....    BL       FMC_Open ; 0x1058
        0x00002508:    f44f3088    O..0    MOV      r0,#0x11000
        0x0000250c:    f7fff9fa    ....    BL       SetDataFlashBase ; 0x1904
        0x00002510:    f1b03fff    ...?    CMP      r0,#0xffffffff
        0x00002514:    dc04        ..      BGT      0x2520 ; load_data + 48
        0x00002516:    e7ff        ..      B        0x2518 ; load_data + 40
        0x00002518:    20ff        .       MOVS     r0,#0xff
        0x0000251a:    f88d0037    ..7.    STRB     r0,[sp,#0x37]
        0x0000251e:    e0a8        ..      B        0x2672 ; load_data + 386
        0x00002520:    2000        .       MOVS     r0,#0
        0x00002522:    f88d000b    ....    STRB     r0,[sp,#0xb]
        0x00002526:    f44f3088    O..0    MOV      r0,#0x11000
        0x0000252a:    900c        ..      STR      r0,[sp,#0x30]
        0x0000252c:    e7ff        ..      B        0x252e ; load_data + 62
        0x0000252e:    980c        ..      LDR      r0,[sp,#0x30]
        0x00002530:    f89d1036    ..6.    LDRB     r1,[sp,#0x36]
        0x00002534:    f5013188    ...1    ADD      r1,r1,#0x11000
        0x00002538:    4288        .B      CMP      r0,r1
        0x0000253a:    d212        ..      BCS      0x2562 ; load_data + 114
        0x0000253c:    e7ff        ..      B        0x253e ; load_data + 78
        0x0000253e:    980c        ..      LDR      r0,[sp,#0x30]
        0x00002540:    f7fefd94    ....    BL       FMC_Read ; 0x106c
        0x00002544:    f89d200b    ...     LDRB     r2,[sp,#0xb]
        0x00002548:    a903        ..      ADD      r1,sp,#0xc
        0x0000254a:    f8410022    A.".    STR      r0,[r1,r2,LSL #2]
        0x0000254e:    f89d000b    ....    LDRB     r0,[sp,#0xb]
        0x00002552:    3001        .0      ADDS     r0,#1
        0x00002554:    f88d000b    ....    STRB     r0,[sp,#0xb]
        0x00002558:    e7ff        ..      B        0x255a ; load_data + 106
        0x0000255a:    980c        ..      LDR      r0,[sp,#0x30]
        0x0000255c:    3004        .0      ADDS     r0,#4
        0x0000255e:    900c        ..      STR      r0,[sp,#0x30]
        0x00002560:    e7e5        ..      B        0x252e ; load_data + 62
        0x00002562:    2000        .       MOVS     r0,#0
        0x00002564:    f88d000a    ....    STRB     r0,[sp,#0xa]
        0x00002568:    f88d000a    ....    STRB     r0,[sp,#0xa]
        0x0000256c:    e7ff        ..      B        0x256e ; load_data + 126
        0x0000256e:    f89d000a    ....    LDRB     r0,[sp,#0xa]
        0x00002572:    f240010c    @...    MOVW     r1,#0xc
        0x00002576:    f2c20100    ....    MOVT     r1,#0x2000
        0x0000257a:    7809        .x      LDRB     r1,[r1,#0]
        0x0000257c:    ebb00f41    ..A.    CMP      r0,r1,LSL #1
        0x00002580:    da2d        -.      BGE      0x25de ; load_data + 238
        0x00002582:    e7ff        ..      B        0x2584 ; load_data + 148
        0x00002584:    f89d300a    ...0    LDRB     r3,[sp,#0xa]
        0x00002588:    a803        ..      ADD      r0,sp,#0xc
        0x0000258a:    eb000183    ....    ADD      r1,r0,r3,LSL #2
        0x0000258e:    8849        I.      LDRH     r1,[r1,#2]
        0x00002590:    f2400256    @.V.    MOVW     r2,#0x56
        0x00002594:    f2c20200    ....    MOVT     r2,#0x2000
        0x00002598:    f8221023    ".#.    STRH     r1,[r2,r3,LSL #2]
        0x0000259c:    f89d300a    ...0    LDRB     r3,[sp,#0xa]
        0x000025a0:    f8501023    P.#.    LDR      r1,[r0,r3,LSL #2]
        0x000025a4:    eb020283    ....    ADD      r2,r2,r3,LSL #2
        0x000025a8:    8051        Q.      STRH     r1,[r2,#2]
        0x000025aa:    f89d300a    ...0    LDRB     r3,[sp,#0xa]
        0x000025ae:    eb000183    ....    ADD      r1,r0,r3,LSL #2
        0x000025b2:    88ca        ..      LDRH     r2,[r1,#6]
        0x000025b4:    f2400132    @.2.    MOVW     r1,#0x32
        0x000025b8:    f2c20100    ....    MOVT     r1,#0x2000
        0x000025bc:    f8212023    !.#     STRH     r2,[r1,r3,LSL #2]
        0x000025c0:    f89d200a    ...     LDRB     r2,[sp,#0xa]
        0x000025c4:    eb000082    ....    ADD      r0,r0,r2,LSL #2
        0x000025c8:    6840        @h      LDR      r0,[r0,#4]
        0x000025ca:    eb010182    ....    ADD      r1,r1,r2,LSL #2
        0x000025ce:    8048        H.      STRH     r0,[r1,#2]
        0x000025d0:    e7ff        ..      B        0x25d2 ; load_data + 226
        0x000025d2:    f89d000a    ....    LDRB     r0,[sp,#0xa]
        0x000025d6:    3002        .0      ADDS     r0,#2
        0x000025d8:    f88d000a    ....    STRB     r0,[sp,#0xa]
        0x000025dc:    e7c7        ..      B        0x256e ; load_data + 126
        0x000025de:    2000        .       MOVS     r0,#0
        0x000025e0:    9001        ..      STR      r0,[sp,#4]
        0x000025e2:    f88d0003    ....    STRB     r0,[sp,#3]
        0x000025e6:    e7ff        ..      B        0x25e8 ; load_data + 248
        0x000025e8:    f89d0003    ....    LDRB     r0,[sp,#3]
        0x000025ec:    f240010c    @...    MOVW     r1,#0xc
        0x000025f0:    f2c20100    ....    MOVT     r1,#0x2000
        0x000025f4:    7809        .x      LDRB     r1,[r1,#0]
        0x000025f6:    ebb00f41    ..A.    CMP      r0,r1,LSL #1
        0x000025fa:    da0f        ..      BGE      0x261c ; load_data + 300
        0x000025fc:    e7ff        ..      B        0x25fe ; load_data + 270
        0x000025fe:    f89d1003    ....    LDRB     r1,[sp,#3]
        0x00002602:    a803        ..      ADD      r0,sp,#0xc
        0x00002604:    f8501021    P.!.    LDR      r1,[r0,r1,LSL #2]
        0x00002608:    9801        ..      LDR      r0,[sp,#4]
        0x0000260a:    4408        .D      ADD      r0,r0,r1
        0x0000260c:    9001        ..      STR      r0,[sp,#4]
        0x0000260e:    e7ff        ..      B        0x2610 ; load_data + 288
        0x00002610:    f89d0003    ....    LDRB     r0,[sp,#3]
        0x00002614:    3001        .0      ADDS     r0,#1
        0x00002616:    f88d0003    ....    STRB     r0,[sp,#3]
        0x0000261a:    e7e5        ..      B        0x25e8 ; load_data + 248
        0x0000261c:    9801        ..      LDR      r0,[sp,#4]
        0x0000261e:    43c0        .C      MVNS     r0,r0
        0x00002620:    9001        ..      STR      r0,[sp,#4]
        0x00002622:    980b        ..      LDR      r0,[sp,#0x2c]
        0x00002624:    9901        ..      LDR      r1,[sp,#4]
        0x00002626:    4288        .B      CMP      r0,r1
        0x00002628:    d022        ".      BEQ      0x2670 ; load_data + 384
        0x0000262a:    e7ff        ..      B        0x262c ; load_data + 316
        0x0000262c:    2000        .       MOVS     r0,#0
        0x0000262e:    f88d0002    ....    STRB     r0,[sp,#2]
        0x00002632:    e7ff        ..      B        0x2634 ; load_data + 324
        0x00002634:    f89d0002    ....    LDRB     r0,[sp,#2]
        0x00002638:    f240010c    @...    MOVW     r1,#0xc
        0x0000263c:    f2c20100    ....    MOVT     r1,#0x2000
        0x00002640:    7809        .x      LDRB     r1,[r1,#0]
        0x00002642:    ebb00f41    ..A.    CMP      r0,r1,LSL #1
        0x00002646:    da0f        ..      BGE      0x2668 ; load_data + 376
        0x00002648:    e7ff        ..      B        0x264a ; load_data + 346
        0x0000264a:    f89d1002    ....    LDRB     r1,[sp,#2]
        0x0000264e:    a803        ..      ADD      r0,sp,#0xc
        0x00002650:    f8501021    P.!.    LDR      r1,[r0,r1,LSL #2]
        0x00002654:    9801        ..      LDR      r0,[sp,#4]
        0x00002656:    4408        .D      ADD      r0,r0,r1
        0x00002658:    9001        ..      STR      r0,[sp,#4]
        0x0000265a:    e7ff        ..      B        0x265c ; load_data + 364
        0x0000265c:    f89d0002    ....    LDRB     r0,[sp,#2]
        0x00002660:    3001        .0      ADDS     r0,#1
        0x00002662:    f88d0002    ....    STRB     r0,[sp,#2]
        0x00002666:    e7e5        ..      B        0x2634 ; load_data + 324
        0x00002668:    20fe        .       MOVS     r0,#0xfe
        0x0000266a:    f88d0037    ..7.    STRB     r0,[sp,#0x37]
        0x0000266e:    e000        ..      B        0x2672 ; load_data + 386
        0x00002670:    e7ff        ..      B        0x2672 ; load_data + 386
        0x00002672:    f7fefc73    ..s.    BL       FMC_Close ; 0xf5c
        0x00002676:    f7fff8a1    ....    BL       SYS_LockReg ; 0x17bc
        0x0000267a:    f99d0037    ..7.    LDRSB    r0,[sp,#0x37]
        0x0000267e:    b00e        ..      ADD      sp,sp,#0x38
        0x00002680:    bd80        ..      POP      {r7,pc}
        0x00002682:    0000        ..      MOVS     r0,r0
    main
        0x00002684:    b580        ..      PUSH     {r7,lr}
        0x00002686:    b08e        ..      SUB      sp,sp,#0x38
        0x00002688:    2000        .       MOVS     r0,#0
        0x0000268a:    9007        ..      STR      r0,[sp,#0x1c]
        0x0000268c:    900d        ..      STR      r0,[sp,#0x34]
        0x0000268e:    f7fff8e3    ....    BL       SYS_UnlockReg ; 0x1858
        0x00002692:    f7fff815    ....    BL       SYS_Init ; 0x16c0
        0x00002696:    f7fff891    ....    BL       SYS_LockReg ; 0x17bc
        0x0000269a:    f7fffcb1    ....    BL       UART1_Init ; 0x2000
        0x0000269e:    f2440080    D...    MOVW     r0,#0x4080
        0x000026a2:    f2c40000    ....    MOVT     r0,#0x4000
        0x000026a6:    2201        ."      MOVS     r2,#1
        0x000026a8:    9204        ..      STR      r2,[sp,#0x10]
        0x000026aa:    4611        .F      MOV      r1,r2
        0x000026ac:    f7fefe72    ..r.    BL       GPIO_SetMode ; 0x1394
        0x000026b0:    9a04        ..      LDR      r2,[sp,#0x10]
        0x000026b2:    f24400c0    D...    MOV      r0,#0x40c0
        0x000026b6:    f2c40000    ....    MOVT     r0,#0x4000
        0x000026ba:    9003        ..      STR      r0,[sp,#0xc]
        0x000026bc:    4611        .F      MOV      r1,r2
        0x000026be:    f7fefe69    ..i.    BL       GPIO_SetMode ; 0x1394
        0x000026c2:    9803        ..      LDR      r0,[sp,#0xc]
        0x000026c4:    9a04        ..      LDR      r2,[sp,#0x10]
        0x000026c6:    2102        .!      MOVS     r1,#2
        0x000026c8:    f7fefe64    ..d.    BL       GPIO_SetMode ; 0x1394
        0x000026cc:    9803        ..      LDR      r0,[sp,#0xc]
        0x000026ce:    9a04        ..      LDR      r2,[sp,#0x10]
        0x000026d0:    2104        .!      MOVS     r1,#4
        0x000026d2:    f7fefe5f    .._.    BL       GPIO_SetMode ; 0x1394
        0x000026d6:    9803        ..      LDR      r0,[sp,#0xc]
        0x000026d8:    9a04        ..      LDR      r2,[sp,#0x10]
        0x000026da:    2108        .!      MOVS     r1,#8
        0x000026dc:    9105        ..      STR      r1,[sp,#0x14]
        0x000026de:    f7fefe59    ..Y.    BL       GPIO_SetMode ; 0x1394
        0x000026e2:    9804        ..      LDR      r0,[sp,#0x10]
        0x000026e4:    9905        ..      LDR      r1,[sp,#0x14]
        0x000026e6:    9a07        ..      LDR      r2,[sp,#0x1c]
        0x000026e8:    f64403c0    D...    MOV      r3,#0x48c0
        0x000026ec:    f2c40300    ....    MOVT     r3,#0x4000
        0x000026f0:    6018        .`      STR      r0,[r3,#0]
        0x000026f2:    f64403c8    D...    MOV      r3,#0x48c8
        0x000026f6:    f2c40300    ....    MOVT     r3,#0x4000
        0x000026fa:    6018        .`      STR      r0,[r3,#0]
        0x000026fc:    f64403cc    D...    MOV      r3,#0x48cc
        0x00002700:    f2c40300    ....    MOVT     r3,#0x4000
        0x00002704:    6018        .`      STR      r0,[r3,#0]
        0x00002706:    f6440380    D...    MOVW     r3,#0x4880
        0x0000270a:    f2c40300    ....    MOVT     r3,#0x4000
        0x0000270e:    6018        .`      STR      r0,[r3,#0]
        0x00002710:    f64400c4    D...    MOV      r0,#0x48c4
        0x00002714:    f2c40000    ....    MOVT     r0,#0x4000
        0x00002718:    6002        .`      STR      r2,[r0,#0]
        0x0000271a:    f2440040    D.@.    MOV      r0,#0x4040
        0x0000271e:    f2c40000    ....    MOVT     r0,#0x4000
        0x00002722:    9006        ..      STR      r0,[sp,#0x18]
        0x00002724:    f7fefe36    ..6.    BL       GPIO_SetMode ; 0x1394
        0x00002728:    9806        ..      LDR      r0,[sp,#0x18]
        0x0000272a:    9a07        ..      LDR      r2,[sp,#0x1c]
        0x0000272c:    2110        .!      MOVS     r1,#0x10
        0x0000272e:    f7fefe31    ..1.    BL       GPIO_SetMode ; 0x1394
        0x00002732:    9806        ..      LDR      r0,[sp,#0x18]
        0x00002734:    9a07        ..      LDR      r2,[sp,#0x1c]
        0x00002736:    2120         !      MOVS     r1,#0x20
        0x00002738:    9108        ..      STR      r1,[sp,#0x20]
        0x0000273a:    f7fefe2b    ..+.    BL       GPIO_SetMode ; 0x1394
        0x0000273e:    9806        ..      LDR      r0,[sp,#0x18]
        0x00002740:    9a07        ..      LDR      r2,[sp,#0x1c]
        0x00002742:    2180        .!      MOVS     r1,#0x80
        0x00002744:    f7fefe26    ..&.    BL       GPIO_SetMode ; 0x1394
        0x00002748:    2000        .       MOVS     r0,#0
        0x0000274a:    f2c40005    ....    MOVT     r0,#0x4005
        0x0000274e:    9009        ..      STR      r0,[sp,#0x24]
        0x00002750:    f04f6100    O..a    MOV      r1,#0x8000000
        0x00002754:    f240320f    @..2    MOV      r2,#0x30f
        0x00002758:    f7fffa14    ....    BL       TIMER_Open ; 0x1b84
        0x0000275c:    9809        ..      LDR      r0,[sp,#0x24]
        0x0000275e:    f7fff983    ....    BL       TIMER_EnableInt ; 0x1a68
        0x00002762:    9808        ..      LDR      r0,[sp,#0x20]
        0x00002764:    f7fffd6e    ..n.    BL       __NVIC_EnableIRQ ; 0x2244
        0x00002768:    9809        ..      LDR      r0,[sp,#0x24]
        0x0000276a:    f7fffa45    ..E.    BL       TIMER_Start ; 0x1bf8
        0x0000276e:    f2410000    A...    MOVW     r0,#0x1000
        0x00002772:    f2c40007    ....    MOVT     r0,#0x4007
        0x00002776:    2111        .!      MOVS     r1,#0x11
        0x00002778:    f7fffc52    ..R.    BL       UART_EnableInt ; 0x2020
        0x0000277c:    2025        %       MOVS     r0,#0x25
        0x0000277e:    f7fffd61    ..a.    BL       __NVIC_EnableIRQ ; 0x2244
        0x00002782:    f7fff869    ..i.    BL       SYS_UnlockReg ; 0x1858
        0x00002786:    f64f70f7    O..p    MOV      r0,#0xfff7
        0x0000278a:    f2c00001    ....    MOVT     r0,#1
        0x0000278e:    900b        ..      STR      r0,[sp,#0x2c]
        0x00002790:    e7ff        ..      B        0x2792 ; main + 270
        0x00002792:    980b        ..      LDR      r0,[sp,#0x2c]
        0x00002794:    1e41        A.      SUBS     r1,r0,#1
        0x00002796:    910b        ..      STR      r1,[sp,#0x2c]
        0x00002798:    b150        P.      CBZ      r0,0x27b0 ; main + 300
        0x0000279a:    e7ff        ..      B        0x279c ; main + 280
        0x0000279c:    2100        .!      MOVS     r1,#0
        0x0000279e:    f2c40104    ....    MOVT     r1,#0x4004
        0x000027a2:    6808        .h      LDR      r0,[r1,#0]
        0x000027a4:    f0400001    @...    ORR      r0,r0,#1
        0x000027a8:    f020002c     .,.    BIC      r0,r0,#0x2c
        0x000027ac:    6008        .`      STR      r0,[r1,#0]
        0x000027ae:    e7f0        ..      B        0x2792 ; main + 270
        0x000027b0:    f7fff804    ....    BL       SYS_LockReg ; 0x17bc
        0x000027b4:    f240019f    @...    MOVW     r1,#0x9f
        0x000027b8:    f2c20100    ....    MOVT     r1,#0x2000
        0x000027bc:    2012        .       MOVS     r0,#0x12
        0x000027be:    7008        .p      STRB     r0,[r1,#0]
        0x000027c0:    f2410000    A...    MOVW     r0,#0x1000
        0x000027c4:    f2c40007    ....    MOVT     r0,#0x4007
        0x000027c8:    2201        ."      MOVS     r2,#1
        0x000027ca:    f7fffcab    ....    BL       UART_Write ; 0x2124
        0x000027ce:    2008        .       MOVS     r0,#8
        0x000027d0:    f7fffd38    ..8.    BL       __NVIC_EnableIRQ ; 0x2244
        0x000027d4:    2000        .       MOVS     r0,#0
        0x000027d6:    f88d002b    ..+.    STRB     r0,[sp,#0x2b]
        0x000027da:    f7fffe89    ....    BL       load_data ; 0x24f0
        0x000027de:    f88d002b    ..+.    STRB     r0,[sp,#0x2b]
        0x000027e2:    f99d002b    ..+.    LDRSB    r0,[sp,#0x2b]
        0x000027e6:    b908        ..      CBNZ     r0,0x27ec ; main + 360
        0x000027e8:    e7ff        ..      B        0x27ea ; main + 358
        0x000027ea:    e040        @.      B        0x286e ; main + 490
        0x000027ec:    f000f930    ..0.    BL       save_data ; 0x2a50
        0x000027f0:    f88d002b    ..+.    STRB     r0,[sp,#0x2b]
        0x000027f4:    f99d002b    ..+.    LDRSB    r0,[sp,#0x2b]
        0x000027f8:    b908        ..      CBNZ     r0,0x27fe ; main + 378
        0x000027fa:    e7ff        ..      B        0x27fc ; main + 376
        0x000027fc:    e000        ..      B        0x2800 ; main + 380
        0x000027fe:    e7ff        ..      B        0x2800 ; main + 380
        0x00002800:    f7fffe76    ..v.    BL       load_data ; 0x24f0
        0x00002804:    f88d002b    ..+.    STRB     r0,[sp,#0x2b]
        0x00002808:    f99d002b    ..+.    LDRSB    r0,[sp,#0x2b]
        0x0000280c:    b908        ..      CBNZ     r0,0x2812 ; main + 398
        0x0000280e:    e7ff        ..      B        0x2810 ; main + 396
        0x00002810:    e02c        ,.      B        0x286c ; main + 488
        0x00002812:    2000        .       MOVS     r0,#0
        0x00002814:    f88d002a    ..*.    STRB     r0,[sp,#0x2a]
        0x00002818:    e7ff        ..      B        0x281a ; main + 406
        0x0000281a:    f89d002a    ..*.    LDRB     r0,[sp,#0x2a]
        0x0000281e:    2803        .(      CMP      r0,#3
        0x00002820:    dc23        #.      BGT      0x286a ; main + 486
        0x00002822:    e7ff        ..      B        0x2824 ; main + 416
        0x00002824:    f89d202a    ..*     LDRB     r2,[sp,#0x2a]
        0x00002828:    f2400156    @.V.    MOVW     r1,#0x56
        0x0000282c:    f2c20100    ....    MOVT     r1,#0x2000
        0x00002830:    f2400066    @.f.    MOVW     r0,#0x66
        0x00002834:    f2c20000    ....    MOVT     r0,#0x2000
        0x00002838:    f8500022    P.".    LDR      r0,[r0,r2,LSL #2]
        0x0000283c:    f8410022    A.".    STR      r0,[r1,r2,LSL #2]
        0x00002840:    f89d202a    ..*     LDRB     r2,[sp,#0x2a]
        0x00002844:    f2400132    @.2.    MOVW     r1,#0x32
        0x00002848:    f2c20100    ....    MOVT     r1,#0x2000
        0x0000284c:    f2400042    @.B.    MOVW     r0,#0x42
        0x00002850:    f2c20000    ....    MOVT     r0,#0x2000
        0x00002854:    f8500022    P.".    LDR      r0,[r0,r2,LSL #2]
        0x00002858:    f8410022    A.".    STR      r0,[r1,r2,LSL #2]
        0x0000285c:    e7ff        ..      B        0x285e ; main + 474
        0x0000285e:    f89d002a    ..*.    LDRB     r0,[sp,#0x2a]
        0x00002862:    3001        .0      ADDS     r0,#1
        0x00002864:    f88d002a    ..*.    STRB     r0,[sp,#0x2a]
        0x00002868:    e7d7        ..      B        0x281a ; main + 406
        0x0000286a:    e7ff        ..      B        0x286c ; main + 488
        0x0000286c:    e7ff        ..      B        0x286e ; main + 490
        0x0000286e:    f7fefff3    ....    BL       SYS_UnlockReg ; 0x1858
        0x00002872:    f44f60a0    O..`    MOV      r0,#0x500
        0x00002876:    2102        .!      MOVS     r1,#2
        0x00002878:    2301        .#      MOVS     r3,#1
        0x0000287a:    461a        .F      MOV      r2,r3
        0x0000287c:    f7fffcb8    ....    BL       WDT_Open ; 0x21f0
        0x00002880:    2100        .!      MOVS     r1,#0
        0x00002882:    f2c40104    ....    MOVT     r1,#0x4004
        0x00002886:    6808        .h      LDR      r0,[r1,#0]
        0x00002888:    f0400001    @...    ORR      r0,r0,#1
        0x0000288c:    f020002c     .,.    BIC      r0,r0,#0x2c
        0x00002890:    6008        .`      STR      r0,[r1,#0]
        0x00002892:    f7fffca3    ....    BL       WDT_EnableInt ; 0x21dc
        0x00002896:    f7feff91    ....    BL       SYS_LockReg ; 0x17bc
        0x0000289a:    e7ff        ..      B        0x289c ; main + 536
        0x0000289c:    f240009e    @...    MOVW     r0,#0x9e
        0x000028a0:    f2c20000    ....    MOVT     r0,#0x2000
        0x000028a4:    7800        .x      LDRB     r0,[r0,#0]
        0x000028a6:    2801        .(      CMP      r0,#1
        0x000028a8:    d175        u.      BNE      0x2996 ; main + 786
        0x000028aa:    e7ff        ..      B        0x28ac ; main + 552
        0x000028ac:    f2400078    @.x.    MOVW     r0,#0x78
        0x000028b0:    f2c20000    ....    MOVT     r0,#0x2000
        0x000028b4:    9000        ..      STR      r0,[sp,#0]
        0x000028b6:    7882        .x      LDRB     r2,[r0,#2]
        0x000028b8:    78c1        .x      LDRB     r1,[r0,#3]
        0x000028ba:    ea412102    A..!    ORR      r1,r1,r2,LSL #8
        0x000028be:    f2400356    @.V.    MOVW     r3,#0x56
        0x000028c2:    f2c20300    ....    MOVT     r3,#0x2000
        0x000028c6:    9301        ..      STR      r3,[sp,#4]
        0x000028c8:    8019        ..      STRH     r1,[r3,#0]
        0x000028ca:    7902        .y      LDRB     r2,[r0,#4]
        0x000028cc:    7941        Ay      LDRB     r1,[r0,#5]
        0x000028ce:    ea412102    A..!    ORR      r1,r1,r2,LSL #8
        0x000028d2:    8059        Y.      STRH     r1,[r3,#2]
        0x000028d4:    7982        .y      LDRB     r2,[r0,#6]
        0x000028d6:    79c1        .y      LDRB     r1,[r0,#7]
        0x000028d8:    ea412202    A.."    ORR      r2,r1,r2,LSL #8
        0x000028dc:    f2400132    @.2.    MOVW     r1,#0x32
        0x000028e0:    f2c20100    ....    MOVT     r1,#0x2000
        0x000028e4:    9102        ..      STR      r1,[sp,#8]
        0x000028e6:    800a        ..      STRH     r2,[r1,#0]
        0x000028e8:    f890c008    ....    LDRB     r12,[r0,#8]
        0x000028ec:    7a42        Bz      LDRB     r2,[r0,#9]
        0x000028ee:    ea42220c    B.."    ORR      r2,r2,r12,LSL #8
        0x000028f2:    804a        J.      STRH     r2,[r1,#2]
        0x000028f4:    f890c00a    ....    LDRB     r12,[r0,#0xa]
        0x000028f8:    7ac2        .z      LDRB     r2,[r0,#0xb]
        0x000028fa:    ea42220c    B.."    ORR      r2,r2,r12,LSL #8
        0x000028fe:    809a        ..      STRH     r2,[r3,#4]
        0x00002900:    f890c00c    ....    LDRB     r12,[r0,#0xc]
        0x00002904:    7b42        B{      LDRB     r2,[r0,#0xd]
        0x00002906:    ea42220c    B.."    ORR      r2,r2,r12,LSL #8
        0x0000290a:    80da        ..      STRH     r2,[r3,#6]
        0x0000290c:    f890c00e    ....    LDRB     r12,[r0,#0xe]
        0x00002910:    7bc2        .{      LDRB     r2,[r0,#0xf]
        0x00002912:    ea42220c    B.."    ORR      r2,r2,r12,LSL #8
        0x00002916:    808a        ..      STRH     r2,[r1,#4]
        0x00002918:    f890c010    ....    LDRB     r12,[r0,#0x10]
        0x0000291c:    7c42        B|      LDRB     r2,[r0,#0x11]
        0x0000291e:    ea42220c    B.."    ORR      r2,r2,r12,LSL #8
        0x00002922:    80ca        ..      STRH     r2,[r1,#6]
        0x00002924:    f890c012    ....    LDRB     r12,[r0,#0x12]
        0x00002928:    7cc2        .|      LDRB     r2,[r0,#0x13]
        0x0000292a:    ea42220c    B.."    ORR      r2,r2,r12,LSL #8
        0x0000292e:    811a        ..      STRH     r2,[r3,#8]
        0x00002930:    f890c014    ....    LDRB     r12,[r0,#0x14]
        0x00002934:    7d42        B}      LDRB     r2,[r0,#0x15]
        0x00002936:    ea42220c    B.."    ORR      r2,r2,r12,LSL #8
        0x0000293a:    815a        Z.      STRH     r2,[r3,#0xa]
        0x0000293c:    f890c016    ....    LDRB     r12,[r0,#0x16]
        0x00002940:    7dc2        .}      LDRB     r2,[r0,#0x17]
        0x00002942:    ea42220c    B.."    ORR      r2,r2,r12,LSL #8
        0x00002946:    810a        ..      STRH     r2,[r1,#8]
        0x00002948:    f890c018    ....    LDRB     r12,[r0,#0x18]
        0x0000294c:    7e42        B~      LDRB     r2,[r0,#0x19]
        0x0000294e:    ea42220c    B.."    ORR      r2,r2,r12,LSL #8
        0x00002952:    814a        J.      STRH     r2,[r1,#0xa]
        0x00002954:    f890c01a    ....    LDRB     r12,[r0,#0x1a]
        0x00002958:    7ec2        .~      LDRB     r2,[r0,#0x1b]
        0x0000295a:    ea42220c    B.."    ORR      r2,r2,r12,LSL #8
        0x0000295e:    819a        ..      STRH     r2,[r3,#0xc]
        0x00002960:    f890c01c    ....    LDRB     r12,[r0,#0x1c]
        0x00002964:    7f42        B.      LDRB     r2,[r0,#0x1d]
        0x00002966:    ea42220c    B.."    ORR      r2,r2,r12,LSL #8
        0x0000296a:    81da        ..      STRH     r2,[r3,#0xe]
        0x0000296c:    7f83        ..      LDRB     r3,[r0,#0x1e]
        0x0000296e:    7fc2        ..      LDRB     r2,[r0,#0x1f]
        0x00002970:    ea422203    B.."    ORR      r2,r2,r3,LSL #8
        0x00002974:    818a        ..      STRH     r2,[r1,#0xc]
        0x00002976:    f8902020    ..      LDRB     r2,[r0,#0x20]
        0x0000297a:    f8900021    ..!.    LDRB     r0,[r0,#0x21]
        0x0000297e:    ea402002    @..     ORR      r0,r0,r2,LSL #8
        0x00002982:    81c8        ..      STRH     r0,[r1,#0xe]
        0x00002984:    f000f864    ..d.    BL       save_data ; 0x2a50
        0x00002988:    f240019e    @...    MOVW     r1,#0x9e
        0x0000298c:    f2c20100    ....    MOVT     r1,#0x2000
        0x00002990:    2000        .       MOVS     r0,#0
        0x00002992:    7008        .p      STRB     r0,[r1,#0]
        0x00002994:    e00b        ..      B        0x29ae ; main + 810
        0x00002996:    f2400030    @.0.    MOVW     r0,#0x30
        0x0000299a:    f2c20000    ....    MOVT     r0,#0x2000
        0x0000299e:    7800        .x      LDRB     r0,[r0,#0]
        0x000029a0:    2806        .(      CMP      r0,#6
        0x000029a2:    d003        ..      BEQ      0x29ac ; main + 808
        0x000029a4:    e7ff        ..      B        0x29a6 ; main + 802
        0x000029a6:    f000f983    ....    BL       touch_read ; 0x2cb0
        0x000029aa:    e7ff        ..      B        0x29ac ; main + 808
        0x000029ac:    e7ff        ..      B        0x29ae ; main + 810
        0x000029ae:    f2401010    @...    MOVW     r0,#0x110
        0x000029b2:    f2c20000    ....    MOVT     r0,#0x2000
        0x000029b6:    7800        .x      LDRB     r0,[r0,#0]
        0x000029b8:    2801        .(      CMP      r0,#1
        0x000029ba:    d114        ..      BNE      0x29e6 ; main + 866
        0x000029bc:    e7ff        ..      B        0x29be ; main + 826
        0x000029be:    f240019f    @...    MOVW     r1,#0x9f
        0x000029c2:    f2c20100    ....    MOVT     r1,#0x2000
        0x000029c6:    2015        .       MOVS     r0,#0x15
        0x000029c8:    7008        .p      STRB     r0,[r1,#0]
        0x000029ca:    f2410000    A...    MOVW     r0,#0x1000
        0x000029ce:    f2c40007    ....    MOVT     r0,#0x4007
        0x000029d2:    2201        ."      MOVS     r2,#1
        0x000029d4:    f7fffba6    ....    BL       UART_Write ; 0x2124
        0x000029d8:    f2401110    @...    MOVW     r1,#0x110
        0x000029dc:    f2c20100    ....    MOVT     r1,#0x2000
        0x000029e0:    2000        .       MOVS     r0,#0
        0x000029e2:    7008        .p      STRB     r0,[r1,#0]
        0x000029e4:    e7ff        ..      B        0x29e6 ; main + 866
        0x000029e6:    f240100f    @...    MOV      r0,#0x10f
        0x000029ea:    f2c20000    ....    MOVT     r0,#0x2000
        0x000029ee:    7800        .x      LDRB     r0,[r0,#0]
        0x000029f0:    2801        .(      CMP      r0,#1
        0x000029f2:    d114        ..      BNE      0x2a1e ; main + 922
        0x000029f4:    e7ff        ..      B        0x29f6 ; main + 882
        0x000029f6:    f240019f    @...    MOVW     r1,#0x9f
        0x000029fa:    f2c20100    ....    MOVT     r1,#0x2000
        0x000029fe:    2006        .       MOVS     r0,#6
        0x00002a00:    7008        .p      STRB     r0,[r1,#0]
        0x00002a02:    f2410000    A...    MOVW     r0,#0x1000
        0x00002a06:    f2c40007    ....    MOVT     r0,#0x4007
        0x00002a0a:    2201        ."      MOVS     r2,#1
        0x00002a0c:    f7fffb8a    ....    BL       UART_Write ; 0x2124
        0x00002a10:    f240110f    @...    MOV      r1,#0x10f
        0x00002a14:    f2c20100    ....    MOVT     r1,#0x2000
        0x00002a18:    2000        .       MOVS     r0,#0
        0x00002a1a:    7008        .p      STRB     r0,[r1,#0]
        0x00002a1c:    e7ff        ..      B        0x2a1e ; main + 922
        0x00002a1e:    f7fffc01    ....    BL       WDT_rst ; 0x2224
        0x00002a22:    e73b        ;.      B        0x289c ; main + 536
    map
        0x00002a24:    b084        ..      SUB      sp,sp,#0x10
        0x00002a26:    f8ddc010    ....    LDR      r12,[sp,#0x10]
        0x00002a2a:    9003        ..      STR      r0,[sp,#0xc]
        0x00002a2c:    9102        ..      STR      r1,[sp,#8]
        0x00002a2e:    9201        ..      STR      r2,[sp,#4]
        0x00002a30:    9300        ..      STR      r3,[sp,#0]
        0x00002a32:    9803        ..      LDR      r0,[sp,#0xc]
        0x00002a34:    9b02        ..      LDR      r3,[sp,#8]
        0x00002a36:    1ac0        ..      SUBS     r0,r0,r3
        0x00002a38:    9a04        ..      LDR      r2,[sp,#0x10]
        0x00002a3a:    9900        ..      LDR      r1,[sp,#0]
        0x00002a3c:    1a52        R.      SUBS     r2,r2,r1
        0x00002a3e:    4350        PC      MULS     r0,r2,r0
        0x00002a40:    9a01        ..      LDR      r2,[sp,#4]
        0x00002a42:    1ad2        ..      SUBS     r2,r2,r3
        0x00002a44:    fb90f0f2    ....    SDIV     r0,r0,r2
        0x00002a48:    4408        .D      ADD      r0,r0,r1
        0x00002a4a:    b004        ..      ADD      sp,sp,#0x10
        0x00002a4c:    4770        pG      BX       lr
        0x00002a4e:    0000        ..      MOVS     r0,r0
    save_data
        0x00002a50:    b580        ..      PUSH     {r7,lr}
        0x00002a52:    b092        ..      SUB      sp,sp,#0x48
        0x00002a54:    2000        .       MOVS     r0,#0
        0x00002a56:    f88d0046    ..F.    STRB     r0,[sp,#0x46]
        0x00002a5a:    f88d0045    ..E.    STRB     r0,[sp,#0x45]
        0x00002a5e:    2024        $       MOVS     r0,#0x24
        0x00002a60:    f88d001b    ....    STRB     r0,[sp,#0x1b]
        0x00002a64:    f7fefef8    ....    BL       SYS_UnlockReg ; 0x1858
        0x00002a68:    f7fefaf6    ....    BL       FMC_Open ; 0x1058
        0x00002a6c:    f44f3088    O..0    MOV      r0,#0x11000
        0x00002a70:    f7feff48    ..H.    BL       SetDataFlashBase ; 0x1904
        0x00002a74:    f1b03fff    ...?    CMP      r0,#0xffffffff
        0x00002a78:    dc04        ..      BGT      0x2a84 ; save_data + 52
        0x00002a7a:    e7ff        ..      B        0x2a7c ; save_data + 44
        0x00002a7c:    20ff        .       MOVS     r0,#0xff
        0x00002a7e:    f88d0045    ..E.    STRB     r0,[sp,#0x45]
        0x00002a82:    e7ff        ..      B        0x2a84 ; save_data + 52
        0x00002a84:    f7fefad4    ....    BL       FMC_GetBootSource ; 0x1030
        0x00002a88:    b908        ..      CBNZ     r0,0x2a8e ; save_data + 62
        0x00002a8a:    e7ff        ..      B        0x2a8c ; save_data + 60
        0x00002a8c:    e003        ..      B        0x2a96 ; save_data + 70
        0x00002a8e:    20fe        .       MOVS     r0,#0xfe
        0x00002a90:    f88d0045    ..E.    STRB     r0,[sp,#0x45]
        0x00002a94:    e7ff        ..      B        0x2a96 ; save_data + 70
        0x00002a96:    2000        .       MOVS     r0,#0
        0x00002a98:    f88d001a    ....    STRB     r0,[sp,#0x1a]
        0x00002a9c:    f88d001a    ....    STRB     r0,[sp,#0x1a]
        0x00002aa0:    e7ff        ..      B        0x2aa2 ; save_data + 82
        0x00002aa2:    f89d001a    ....    LDRB     r0,[sp,#0x1a]
        0x00002aa6:    f240010c    @...    MOVW     r1,#0xc
        0x00002aaa:    f2c20100    ....    MOVT     r1,#0x2000
        0x00002aae:    7809        .x      LDRB     r1,[r1,#0]
        0x00002ab0:    ebb00f41    ..A.    CMP      r0,r1,LSL #1
        0x00002ab4:    da35        5.      BGE      0x2b22 ; save_data + 210
        0x00002ab6:    e7ff        ..      B        0x2ab8 ; save_data + 104
        0x00002ab8:    f89d301a    ...0    LDRB     r3,[sp,#0x1a]
        0x00002abc:    f2400156    @.V.    MOVW     r1,#0x56
        0x00002ac0:    f2c20100    ....    MOVT     r1,#0x2000
        0x00002ac4:    f8310023    1.#.    LDRH     r0,[r1,r3,LSL #2]
        0x00002ac8:    0402        ..      LSLS     r2,r0,#16
        0x00002aca:    a807        ..      ADD      r0,sp,#0x1c
        0x00002acc:    f8402023    @.#     STR      r2,[r0,r3,LSL #2]
        0x00002ad0:    f89d201a    ...     LDRB     r2,[sp,#0x1a]
        0x00002ad4:    eb010182    ....    ADD      r1,r1,r2,LSL #2
        0x00002ad8:    f9b13002    ...0    LDRSH    r3,[r1,#2]
        0x00002adc:    f8501022    P.".    LDR      r1,[r0,r2,LSL #2]
        0x00002ae0:    4419        .D      ADD      r1,r1,r3
        0x00002ae2:    f8401022    @.".    STR      r1,[r0,r2,LSL #2]
        0x00002ae6:    f89d301a    ...0    LDRB     r3,[sp,#0x1a]
        0x00002aea:    f2400232    @.2.    MOVW     r2,#0x32
        0x00002aee:    f2c20200    ....    MOVT     r2,#0x2000
        0x00002af2:    f8321023    2.#.    LDRH     r1,[r2,r3,LSL #2]
        0x00002af6:    0409        ..      LSLS     r1,r1,#16
        0x00002af8:    eb000383    ....    ADD      r3,r0,r3,LSL #2
        0x00002afc:    6059        Y`      STR      r1,[r3,#4]
        0x00002afe:    f89d101a    ....    LDRB     r1,[sp,#0x1a]
        0x00002b02:    eb020281    ....    ADD      r2,r2,r1,LSL #2
        0x00002b06:    f9b22002    ...     LDRSH    r2,[r2,#2]
        0x00002b0a:    eb000181    ....    ADD      r1,r0,r1,LSL #2
        0x00002b0e:    6848        Hh      LDR      r0,[r1,#4]
        0x00002b10:    4410        .D      ADD      r0,r0,r2
        0x00002b12:    6048        H`      STR      r0,[r1,#4]
        0x00002b14:    e7ff        ..      B        0x2b16 ; save_data + 198
        0x00002b16:    f89d001a    ....    LDRB     r0,[sp,#0x1a]
        0x00002b1a:    3002        .0      ADDS     r0,#2
        0x00002b1c:    f88d001a    ....    STRB     r0,[sp,#0x1a]
        0x00002b20:    e7bf        ..      B        0x2aa2 ; save_data + 82
        0x00002b22:    2000        .       MOVS     r0,#0
        0x00002b24:    9005        ..      STR      r0,[sp,#0x14]
        0x00002b26:    f88d0013    ....    STRB     r0,[sp,#0x13]
        0x00002b2a:    e7ff        ..      B        0x2b2c ; save_data + 220
        0x00002b2c:    f89d0013    ....    LDRB     r0,[sp,#0x13]
        0x00002b30:    f240010c    @...    MOVW     r1,#0xc
        0x00002b34:    f2c20100    ....    MOVT     r1,#0x2000
        0x00002b38:    7809        .x      LDRB     r1,[r1,#0]
        0x00002b3a:    ebb00f41    ..A.    CMP      r0,r1,LSL #1
        0x00002b3e:    da0f        ..      BGE      0x2b60 ; save_data + 272
        0x00002b40:    e7ff        ..      B        0x2b42 ; save_data + 242
        0x00002b42:    f89d1013    ....    LDRB     r1,[sp,#0x13]
        0x00002b46:    a807        ..      ADD      r0,sp,#0x1c
        0x00002b48:    f8501021    P.!.    LDR      r1,[r0,r1,LSL #2]
        0x00002b4c:    9805        ..      LDR      r0,[sp,#0x14]
        0x00002b4e:    4408        .D      ADD      r0,r0,r1
        0x00002b50:    9005        ..      STR      r0,[sp,#0x14]
        0x00002b52:    e7ff        ..      B        0x2b54 ; save_data + 260
        0x00002b54:    f89d0013    ....    LDRB     r0,[sp,#0x13]
        0x00002b58:    3001        .0      ADDS     r0,#1
        0x00002b5a:    f88d0013    ....    STRB     r0,[sp,#0x13]
        0x00002b5e:    e7e5        ..      B        0x2b2c ; save_data + 220
        0x00002b60:    9805        ..      LDR      r0,[sp,#0x14]
        0x00002b62:    43c0        .C      MVNS     r0,r0
        0x00002b64:    9005        ..      STR      r0,[sp,#0x14]
        0x00002b66:    9805        ..      LDR      r0,[sp,#0x14]
        0x00002b68:    900f        ..      STR      r0,[sp,#0x3c]
        0x00002b6a:    2000        .       MOVS     r0,#0
        0x00002b6c:    f88d0046    ..F.    STRB     r0,[sp,#0x46]
        0x00002b70:    f88d0012    ....    STRB     r0,[sp,#0x12]
        0x00002b74:    f44f3088    O..0    MOV      r0,#0x11000
        0x00002b78:    9010        ..      STR      r0,[sp,#0x40]
        0x00002b7a:    e7ff        ..      B        0x2b7c ; save_data + 300
        0x00002b7c:    9810        ..      LDR      r0,[sp,#0x40]
        0x00002b7e:    f89d101b    ....    LDRB     r1,[sp,#0x1b]
        0x00002b82:    f5013188    ...1    ADD      r1,r1,#0x11000
        0x00002b86:    4288        .B      CMP      r0,r1
        0x00002b88:    d21b        ..      BCS      0x2bc2 ; save_data + 370
        0x00002b8a:    e7ff        ..      B        0x2b8c ; save_data + 316
        0x00002b8c:    9810        ..      LDR      r0,[sp,#0x40]
        0x00002b8e:    f7fefa6d    ..m.    BL       FMC_Read ; 0x106c
        0x00002b92:    9003        ..      STR      r0,[sp,#0xc]
        0x00002b94:    f89d1046    ..F.    LDRB     r1,[sp,#0x46]
        0x00002b98:    a807        ..      ADD      r0,sp,#0x1c
        0x00002b9a:    f8500021    P.!.    LDR      r0,[r0,r1,LSL #2]
        0x00002b9e:    9903        ..      LDR      r1,[sp,#0xc]
        0x00002ba0:    4288        .B      CMP      r0,r1
        0x00002ba2:    d004        ..      BEQ      0x2bae ; save_data + 350
        0x00002ba4:    e7ff        ..      B        0x2ba6 ; save_data + 342
        0x00002ba6:    2001        .       MOVS     r0,#1
        0x00002ba8:    f88d0012    ....    STRB     r0,[sp,#0x12]
        0x00002bac:    e7ff        ..      B        0x2bae ; save_data + 350
        0x00002bae:    f89d0046    ..F.    LDRB     r0,[sp,#0x46]
        0x00002bb2:    3001        .0      ADDS     r0,#1
        0x00002bb4:    f88d0046    ..F.    STRB     r0,[sp,#0x46]
        0x00002bb8:    e7ff        ..      B        0x2bba ; save_data + 362
        0x00002bba:    9810        ..      LDR      r0,[sp,#0x40]
        0x00002bbc:    3004        .0      ADDS     r0,#4
        0x00002bbe:    9010        ..      STR      r0,[sp,#0x40]
        0x00002bc0:    e7dc        ..      B        0x2b7c ; save_data + 300
        0x00002bc2:    f89d0012    ....    LDRB     r0,[sp,#0x12]
        0x00002bc6:    b920         .      CBNZ     r0,0x2bd2 ; save_data + 386
        0x00002bc8:    e7ff        ..      B        0x2bca ; save_data + 378
        0x00002bca:    2000        .       MOVS     r0,#0
        0x00002bcc:    f88d0047    ..G.    STRB     r0,[sp,#0x47]
        0x00002bd0:    e069        i.      B        0x2ca6 ; save_data + 598
        0x00002bd2:    f44f3088    O..0    MOV      r0,#0x11000
        0x00002bd6:    9002        ..      STR      r0,[sp,#8]
        0x00002bd8:    f7fef9d4    ....    BL       FMC_Erase ; 0xf84
        0x00002bdc:    9802        ..      LDR      r0,[sp,#8]
        0x00002bde:    f44f318c    O..1    MOV      r1,#0x11800
        0x00002be2:    f04f32ff    O..2    MOV      r2,#0xffffffff
        0x00002be6:    f7fffad3    ....    BL       VerifyData ; 0x2190
        0x00002bea:    f1b03fff    ...?    CMP      r0,#0xffffffff
        0x00002bee:    dc04        ..      BGT      0x2bfa ; save_data + 426
        0x00002bf0:    e7ff        ..      B        0x2bf2 ; save_data + 418
        0x00002bf2:    20fd        .       MOVS     r0,#0xfd
        0x00002bf4:    f88d0045    ..E.    STRB     r0,[sp,#0x45]
        0x00002bf8:    e7ff        ..      B        0x2bfa ; save_data + 426
        0x00002bfa:    2000        .       MOVS     r0,#0
        0x00002bfc:    f88d0046    ..F.    STRB     r0,[sp,#0x46]
        0x00002c00:    f44f3088    O..0    MOV      r0,#0x11000
        0x00002c04:    9010        ..      STR      r0,[sp,#0x40]
        0x00002c06:    e7ff        ..      B        0x2c08 ; save_data + 440
        0x00002c08:    9810        ..      LDR      r0,[sp,#0x40]
        0x00002c0a:    f89d101b    ....    LDRB     r1,[sp,#0x1b]
        0x00002c0e:    f5013188    ...1    ADD      r1,r1,#0x11000
        0x00002c12:    4288        .B      CMP      r0,r1
        0x00002c14:    d212        ..      BCS      0x2c3c ; save_data + 492
        0x00002c16:    e7ff        ..      B        0x2c18 ; save_data + 456
        0x00002c18:    9810        ..      LDR      r0,[sp,#0x40]
        0x00002c1a:    f89d2046    ..F     LDRB     r2,[sp,#0x46]
        0x00002c1e:    a907        ..      ADD      r1,sp,#0x1c
        0x00002c20:    f8511022    Q.".    LDR      r1,[r1,r2,LSL #2]
        0x00002c24:    f7fefade    ....    BL       FMC_Write ; 0x11e4
        0x00002c28:    f89d0046    ..F.    LDRB     r0,[sp,#0x46]
        0x00002c2c:    3001        .0      ADDS     r0,#1
        0x00002c2e:    f88d0046    ..F.    STRB     r0,[sp,#0x46]
        0x00002c32:    e7ff        ..      B        0x2c34 ; save_data + 484
        0x00002c34:    9810        ..      LDR      r0,[sp,#0x40]
        0x00002c36:    3004        .0      ADDS     r0,#4
        0x00002c38:    9010        ..      STR      r0,[sp,#0x40]
        0x00002c3a:    e7e5        ..      B        0x2c08 ; save_data + 440
        0x00002c3c:    2000        .       MOVS     r0,#0
        0x00002c3e:    f88d0046    ..F.    STRB     r0,[sp,#0x46]
        0x00002c42:    f44f3088    O..0    MOV      r0,#0x11000
        0x00002c46:    9010        ..      STR      r0,[sp,#0x40]
        0x00002c48:    e7ff        ..      B        0x2c4a ; save_data + 506
        0x00002c4a:    9810        ..      LDR      r0,[sp,#0x40]
        0x00002c4c:    f89d101b    ....    LDRB     r1,[sp,#0x1b]
        0x00002c50:    f5013188    ...1    ADD      r1,r1,#0x11000
        0x00002c54:    4288        .B      CMP      r0,r1
        0x00002c56:    d21c        ..      BCS      0x2c92 ; save_data + 578
        0x00002c58:    e7ff        ..      B        0x2c5a ; save_data + 522
        0x00002c5a:    f89d1046    ..F.    LDRB     r1,[sp,#0x46]
        0x00002c5e:    a807        ..      ADD      r0,sp,#0x1c
        0x00002c60:    f8500021    P.!.    LDR      r0,[r0,r1,LSL #2]
        0x00002c64:    9001        ..      STR      r0,[sp,#4]
        0x00002c66:    9810        ..      LDR      r0,[sp,#0x40]
        0x00002c68:    f7fefa00    ....    BL       FMC_Read ; 0x106c
        0x00002c6c:    4601        .F      MOV      r1,r0
        0x00002c6e:    9801        ..      LDR      r0,[sp,#4]
        0x00002c70:    4288        .B      CMP      r0,r1
        0x00002c72:    d004        ..      BEQ      0x2c7e ; save_data + 558
        0x00002c74:    e7ff        ..      B        0x2c76 ; save_data + 550
        0x00002c76:    20fc        .       MOVS     r0,#0xfc
        0x00002c78:    f88d0045    ..E.    STRB     r0,[sp,#0x45]
        0x00002c7c:    e7ff        ..      B        0x2c7e ; save_data + 558
        0x00002c7e:    f89d0046    ..F.    LDRB     r0,[sp,#0x46]
        0x00002c82:    3001        .0      ADDS     r0,#1
        0x00002c84:    f88d0046    ..F.    STRB     r0,[sp,#0x46]
        0x00002c88:    e7ff        ..      B        0x2c8a ; save_data + 570
        0x00002c8a:    9810        ..      LDR      r0,[sp,#0x40]
        0x00002c8c:    3004        .0      ADDS     r0,#4
        0x00002c8e:    9010        ..      STR      r0,[sp,#0x40]
        0x00002c90:    e7db        ..      B        0x2c4a ; save_data + 506
        0x00002c92:    e7ff        ..      B        0x2c94 ; save_data + 580
        0x00002c94:    f7fef962    ..b.    BL       FMC_Close ; 0xf5c
        0x00002c98:    f7fefd90    ....    BL       SYS_LockReg ; 0x17bc
        0x00002c9c:    f89d0045    ..E.    LDRB     r0,[sp,#0x45]
        0x00002ca0:    f88d0047    ..G.    STRB     r0,[sp,#0x47]
        0x00002ca4:    e7ff        ..      B        0x2ca6 ; save_data + 598
        0x00002ca6:    f99d0047    ..G.    LDRSB    r0,[sp,#0x47]
        0x00002caa:    b012        ..      ADD      sp,sp,#0x48
        0x00002cac:    bd80        ..      POP      {r7,pc}
        0x00002cae:    0000        ..      MOVS     r0,r0
    touch_read
        0x00002cb0:    b580        ..      PUSH     {r7,lr}
        0x00002cb2:    b094        ..      SUB      sp,sp,#0x50
        0x00002cb4:    f2401012    @...    MOVW     r0,#0x112
        0x00002cb8:    f2c20000    ....    MOVT     r0,#0x2000
        0x00002cbc:    7800        .x      LDRB     r0,[r0,#0]
        0x00002cbe:    2801        .(      CMP      r0,#1
        0x00002cc0:    f04080f8    @...    BNE.W    0x2eb4 ; touch_read + 516
        0x00002cc4:    e7ff        ..      B        0x2cc6 ; touch_read + 22
        0x00002cc6:    f2401112    @...    MOVW     r1,#0x112
        0x00002cca:    f2c20100    ....    MOVT     r1,#0x2000
        0x00002cce:    2000        .       MOVS     r0,#0
        0x00002cd0:    7008        .p      STRB     r0,[r1,#0]
        0x00002cd2:    f2401001    @...    MOV      r0,#0x101
        0x00002cd6:    f2c20000    ....    MOVT     r0,#0x2000
        0x00002cda:    7800        .x      LDRB     r0,[r0,#0]
        0x00002cdc:    2819        .(      CMP      r0,#0x19
        0x00002cde:    f2c080a0    ....    BLT.W    0x2e22 ; touch_read + 370
        0x00002ce2:    e7ff        ..      B        0x2ce4 ; touch_read + 52
        0x00002ce4:    f64401c4    D...    MOV      r1,#0x48c4
        0x00002ce8:    f2c40100    ....    MOVT     r1,#0x4000
        0x00002cec:    2000        .       MOVS     r0,#0
        0x00002cee:    6008        .`      STR      r0,[r1,#0]
        0x00002cf0:    f64400c0    D...    MOV      r0,#0x48c0
        0x00002cf4:    f2c40000    ....    MOVT     r0,#0x4000
        0x00002cf8:    2201        ."      MOVS     r2,#1
        0x00002cfa:    6002        .`      STR      r2,[r0,#0]
        0x00002cfc:    f64400cc    D...    MOV      r0,#0x48cc
        0x00002d00:    f2c40000    ....    MOVT     r0,#0x4000
        0x00002d04:    6002        .`      STR      r2,[r0,#0]
        0x00002d06:    f64400c8    D...    MOV      r0,#0x48c8
        0x00002d0a:    f2c40000    ....    MOVT     r0,#0x4000
        0x00002d0e:    6002        .`      STR      r2,[r0,#0]
        0x00002d10:    f2440080    D...    MOVW     r0,#0x4080
        0x00002d14:    f2c40000    ....    MOVT     r0,#0x4000
        0x00002d18:    4611        .F      MOV      r1,r2
        0x00002d1a:    f7fefb3b    ..;.    BL       GPIO_SetMode ; 0x1394
        0x00002d1e:    f240100c    @...    MOVW     r0,#0x10c
        0x00002d22:    f2c20000    ....    MOVT     r0,#0x2000
        0x00002d26:    7800        .x      LDRB     r0,[r0,#0]
        0x00002d28:    2801        .(      CMP      r0,#1
        0x00002d2a:    d117        ..      BNE      0x2d5c ; touch_read + 172
        0x00002d2c:    e7ff        ..      B        0x2d2e ; touch_read + 126
        0x00002d2e:    2000        .       MOVS     r0,#0
        0x00002d30:    f88d004b    ..K.    STRB     r0,[sp,#0x4b]
        0x00002d34:    e7ff        ..      B        0x2d36 ; touch_read + 134
        0x00002d36:    f89d004b    ..K.    LDRB     r0,[sp,#0x4b]
        0x00002d3a:    2802        .(      CMP      r0,#2
        0x00002d3c:    dc0d        ..      BGT      0x2d5a ; touch_read + 170
        0x00002d3e:    e7ff        ..      B        0x2d40 ; touch_read + 144
        0x00002d40:    f6440180    D...    MOVW     r1,#0x4880
        0x00002d44:    f2c40100    ....    MOVT     r1,#0x4000
        0x00002d48:    2000        .       MOVS     r0,#0
        0x00002d4a:    6008        .`      STR      r0,[r1,#0]
        0x00002d4c:    e7ff        ..      B        0x2d4e ; touch_read + 158
        0x00002d4e:    f89d004b    ..K.    LDRB     r0,[sp,#0x4b]
        0x00002d52:    3001        .0      ADDS     r0,#1
        0x00002d54:    f88d004b    ..K.    STRB     r0,[sp,#0x4b]
        0x00002d58:    e7ed        ..      B        0x2d36 ; touch_read + 134
        0x00002d5a:    e7ff        ..      B        0x2d5c ; touch_read + 172
        0x00002d5c:    f6440180    D...    MOVW     r1,#0x4880
        0x00002d60:    f2c40100    ....    MOVT     r1,#0x4000
        0x00002d64:    2001        .       MOVS     r0,#1
        0x00002d66:    6008        .`      STR      r0,[r1,#0]
        0x00002d68:    f2440144    D.D.    MOV      r1,#0x4044
        0x00002d6c:    f2c40100    ....    MOVT     r1,#0x4000
        0x00002d70:    6808        .h      LDR      r0,[r1,#0]
        0x00002d72:    f4201000     ...    BIC      r0,r0,#0x200000
        0x00002d76:    6008        .`      STR      r0,[r1,#0]
        0x00002d78:    f6440054    D.T.    MOV      r0,#0x4854
        0x00002d7c:    f2c40000    ....    MOVT     r0,#0x4000
        0x00002d80:    6800        .h      LDR      r0,[r0,#0]
        0x00002d82:    bb10        ..      CBNZ     r0,0x2dca ; touch_read + 282
        0x00002d84:    e7ff        ..      B        0x2d86 ; touch_read + 214
        0x00002d86:    f240100c    @...    MOVW     r0,#0x10c
        0x00002d8a:    f2c20000    ....    MOVT     r0,#0x2000
        0x00002d8e:    2101        .!      MOVS     r1,#1
        0x00002d90:    7001        .p      STRB     r1,[r0,#0]
        0x00002d92:    f2401001    @...    MOV      r0,#0x101
        0x00002d96:    f2c20000    ....    MOVT     r0,#0x2000
        0x00002d9a:    7001        .p      STRB     r1,[r0,#0]
        0x00002d9c:    f2440080    D...    MOVW     r0,#0x4080
        0x00002da0:    f2c40000    ....    MOVT     r0,#0x4000
        0x00002da4:    2200        ."      MOVS     r2,#0
        0x00002da6:    920a        ..      STR      r2,[sp,#0x28]
        0x00002da8:    f7fefaf4    ....    BL       GPIO_SetMode ; 0x1394
        0x00002dac:    980a        ..      LDR      r0,[sp,#0x28]
        0x00002dae:    f6440180    D...    MOVW     r1,#0x4880
        0x00002db2:    f2c40100    ....    MOVT     r1,#0x4000
        0x00002db6:    6008        .`      STR      r0,[r1,#0]
        0x00002db8:    f2440144    D.D.    MOV      r1,#0x4044
        0x00002dbc:    f2c40100    ....    MOVT     r1,#0x4000
        0x00002dc0:    6808        .h      LDR      r0,[r1,#0]
        0x00002dc2:    f4400038    @.8.    ORR      r0,r0,#0xb80000
        0x00002dc6:    6008        .`      STR      r0,[r1,#0]
        0x00002dc8:    e02a        *.      B        0x2e20 ; touch_read + 368
        0x00002dca:    f240110c    @...    MOVW     r1,#0x10c
        0x00002dce:    f2c20100    ....    MOVT     r1,#0x2000
        0x00002dd2:    2000        .       MOVS     r0,#0
        0x00002dd4:    7008        .p      STRB     r0,[r1,#0]
        0x00002dd6:    f240100d    @...    MOV      r0,#0x10d
        0x00002dda:    f2c20000    ....    MOVT     r0,#0x2000
        0x00002dde:    7800        .x      LDRB     r0,[r0,#0]
        0x00002de0:    2801        .(      CMP      r0,#1
        0x00002de2:    d11c        ..      BNE      0x2e1e ; touch_read + 366
        0x00002de4:    e7ff        ..      B        0x2de6 ; touch_read + 310
        0x00002de6:    f240100e    @...    MOVW     r0,#0x10e
        0x00002dea:    f2c20000    ....    MOVT     r0,#0x2000
        0x00002dee:    7800        .x      LDRB     r0,[r0,#0]
        0x00002df0:    b9a0        ..      CBNZ     r0,0x2e1c ; touch_read + 364
        0x00002df2:    e7ff        ..      B        0x2df4 ; touch_read + 324
        0x00002df4:    f240110d    @...    MOV      r1,#0x10d
        0x00002df8:    f2c20100    ....    MOVT     r1,#0x2000
        0x00002dfc:    2000        .       MOVS     r0,#0
        0x00002dfe:    7008        .p      STRB     r0,[r1,#0]
        0x00002e00:    f240019f    @...    MOVW     r1,#0x9f
        0x00002e04:    f2c20100    ....    MOVT     r1,#0x2000
        0x00002e08:    2010        .       MOVS     r0,#0x10
        0x00002e0a:    7008        .p      STRB     r0,[r1,#0]
        0x00002e0c:    f2410000    A...    MOVW     r0,#0x1000
        0x00002e10:    f2c40007    ....    MOVT     r0,#0x4007
        0x00002e14:    2201        ."      MOVS     r2,#1
        0x00002e16:    f7fff985    ....    BL       UART_Write ; 0x2124
        0x00002e1a:    e7ff        ..      B        0x2e1c ; touch_read + 364
        0x00002e1c:    e7ff        ..      B        0x2e1e ; touch_read + 366
        0x00002e1e:    e7ff        ..      B        0x2e20 ; touch_read + 368
        0x00002e20:    e010        ..      B        0x2e44 ; touch_read + 404
        0x00002e22:    f2401001    @...    MOV      r0,#0x101
        0x00002e26:    f2c20000    ....    MOVT     r0,#0x2000
        0x00002e2a:    7800        .x      LDRB     r0,[r0,#0]
        0x00002e2c:    2818        .(      CMP      r0,#0x18
        0x00002e2e:    dc08        ..      BGT      0x2e42 ; touch_read + 402
        0x00002e30:    e7ff        ..      B        0x2e32 ; touch_read + 386
        0x00002e32:    f2401101    @...    MOV      r1,#0x101
        0x00002e36:    f2c20100    ....    MOVT     r1,#0x2000
        0x00002e3a:    7808        .x      LDRB     r0,[r1,#0]
        0x00002e3c:    3001        .0      ADDS     r0,#1
        0x00002e3e:    7008        .p      STRB     r0,[r1,#0]
        0x00002e40:    e7ff        ..      B        0x2e42 ; touch_read + 402
        0x00002e42:    e7ff        ..      B        0x2e44 ; touch_read + 404
        0x00002e44:    f240100c    @...    MOVW     r0,#0x10c
        0x00002e48:    f2c20000    ....    MOVT     r0,#0x2000
        0x00002e4c:    7800        .x      LDRB     r0,[r0,#0]
        0x00002e4e:    2801        .(      CMP      r0,#1
        0x00002e50:    d125        %.      BNE      0x2e9e ; touch_read + 494
        0x00002e52:    e7ff        ..      B        0x2e54 ; touch_read + 420
        0x00002e54:    f2401001    @...    MOV      r0,#0x101
        0x00002e58:    f2c20000    ....    MOVT     r0,#0x2000
        0x00002e5c:    7800        .x      LDRB     r0,[r0,#0]
        0x00002e5e:    2807        .(      CMP      r0,#7
        0x00002e60:    d11b        ..      BNE      0x2e9a ; touch_read + 490
        0x00002e62:    e7ff        ..      B        0x2e64 ; touch_read + 436
        0x00002e64:    f64400c0    D...    MOV      r0,#0x48c0
        0x00002e68:    f2c40000    ....    MOVT     r0,#0x4000
        0x00002e6c:    2201        ."      MOVS     r2,#1
        0x00002e6e:    9209        ..      STR      r2,[sp,#0x24]
        0x00002e70:    6002        .`      STR      r2,[r0,#0]
        0x00002e72:    f2440080    D...    MOVW     r0,#0x4080
        0x00002e76:    f2c40000    ....    MOVT     r0,#0x4000
        0x00002e7a:    4611        .F      MOV      r1,r2
        0x00002e7c:    f7fefa8a    ....    BL       GPIO_SetMode ; 0x1394
        0x00002e80:    9809        ..      LDR      r0,[sp,#0x24]
        0x00002e82:    f6440180    D...    MOVW     r1,#0x4880
        0x00002e86:    f2c40100    ....    MOVT     r1,#0x4000
        0x00002e8a:    6008        .`      STR      r0,[r1,#0]
        0x00002e8c:    f64401c4    D...    MOV      r1,#0x48c4
        0x00002e90:    f2c40100    ....    MOVT     r1,#0x4000
        0x00002e94:    2000        .       MOVS     r0,#0
        0x00002e96:    6008        .`      STR      r0,[r1,#0]
        0x00002e98:    e000        ..      B        0x2e9c ; touch_read + 492
        0x00002e9a:    e7ff        ..      B        0x2e9c ; touch_read + 492
        0x00002e9c:    e7ff        ..      B        0x2e9e ; touch_read + 494
        0x00002e9e:    f2401001    @...    MOV      r0,#0x101
        0x00002ea2:    f2c20000    ....    MOVT     r0,#0x2000
        0x00002ea6:    7800        .x      LDRB     r0,[r0,#0]
        0x00002ea8:    f2401102    @...    MOVW     r1,#0x102
        0x00002eac:    f2c20100    ....    MOVT     r1,#0x2000
        0x00002eb0:    7008        .p      STRB     r0,[r1,#0]
        0x00002eb2:    e7ff        ..      B        0x2eb4 ; touch_read + 516
        0x00002eb4:    f2401003    @...    MOV      r0,#0x103
        0x00002eb8:    f2c20000    ....    MOVT     r0,#0x2000
        0x00002ebc:    7800        .x      LDRB     r0,[r0,#0]
        0x00002ebe:    f2401102    @...    MOVW     r1,#0x102
        0x00002ec2:    f2c20100    ....    MOVT     r1,#0x2000
        0x00002ec6:    7809        .x      LDRB     r1,[r1,#0]
        0x00002ec8:    4288        .B      CMP      r0,r1
        0x00002eca:    f00082cf    ....    BEQ.W    0x346c ; touch_read + 1980
        0x00002ece:    e7ff        ..      B        0x2ed0 ; touch_read + 544
        0x00002ed0:    f2401002    @...    MOVW     r0,#0x102
        0x00002ed4:    f2c20000    ....    MOVT     r0,#0x2000
        0x00002ed8:    7801        .x      LDRB     r1,[r0,#0]
        0x00002eda:    f2401203    @...    MOV      r2,#0x103
        0x00002ede:    f2c20200    ....    MOVT     r2,#0x2000
        0x00002ee2:    7011        .p      STRB     r1,[r2,#0]
        0x00002ee4:    7800        .x      LDRB     r0,[r0,#0]
        0x00002ee6:    2801        .(      CMP      r0,#1
        0x00002ee8:    f2c08140    ..@.    BLT.W    0x316c ; touch_read + 1212
        0x00002eec:    e7ff        ..      B        0x2eee ; touch_read + 574
        0x00002eee:    f2401002    @...    MOVW     r0,#0x102
        0x00002ef2:    f2c20000    ....    MOVT     r0,#0x2000
        0x00002ef6:    7800        .x      LDRB     r0,[r0,#0]
        0x00002ef8:    2806        .(      CMP      r0,#6
        0x00002efa:    f3008137    ..7.    BGT.W    0x316c ; touch_read + 1212
        0x00002efe:    e7ff        ..      B        0x2f00 ; touch_read + 592
        0x00002f00:    f2440080    D...    MOVW     r0,#0x4080
        0x00002f04:    f2c40000    ....    MOVT     r0,#0x4000
        0x00002f08:    2101        .!      MOVS     r1,#1
        0x00002f0a:    2200        ."      MOVS     r2,#0
        0x00002f0c:    9207        ..      STR      r2,[sp,#0x1c]
        0x00002f0e:    f7fefa41    ..A.    BL       GPIO_SetMode ; 0x1394
        0x00002f12:    9807        ..      LDR      r0,[sp,#0x1c]
        0x00002f14:    f6440180    D...    MOVW     r1,#0x4880
        0x00002f18:    f2c40100    ....    MOVT     r1,#0x4000
        0x00002f1c:    6008        .`      STR      r0,[r1,#0]
        0x00002f1e:    f2440244    D.D.    MOV      r2,#0x4044
        0x00002f22:    f2c40200    ....    MOVT     r2,#0x4000
        0x00002f26:    6811        .h      LDR      r1,[r2,#0]
        0x00002f28:    f4410138    A.8.    ORR      r1,r1,#0xb80000
        0x00002f2c:    6011        .`      STR      r1,[r2,#0]
        0x00002f2e:    f88d004a    ..J.    STRB     r0,[sp,#0x4a]
        0x00002f32:    f2401002    @...    MOVW     r0,#0x102
        0x00002f36:    f2c20000    ....    MOVT     r0,#0x2000
        0x00002f3a:    7801        .x      LDRB     r1,[r0,#0]
        0x00002f3c:    1e48        H.      SUBS     r0,r1,#1
        0x00002f3e:    9108        ..      STR      r1,[sp,#0x20]
        0x00002f40:    2802        .(      CMP      r0,#2
        0x00002f42:    d30a        ..      BCC      0x2f5a ; touch_read + 682
        0x00002f44:    e7ff        ..      B        0x2f46 ; touch_read + 662
        0x00002f46:    9808        ..      LDR      r0,[sp,#0x20]
        0x00002f48:    3803        .8      SUBS     r0,#3
        0x00002f4a:    2802        .(      CMP      r0,#2
        0x00002f4c:    d309        ..      BCC      0x2f62 ; touch_read + 690
        0x00002f4e:    e7ff        ..      B        0x2f50 ; touch_read + 672
        0x00002f50:    9808        ..      LDR      r0,[sp,#0x20]
        0x00002f52:    3805        .8      SUBS     r0,#5
        0x00002f54:    2802        .(      CMP      r0,#2
        0x00002f56:    d308        ..      BCC      0x2f6a ; touch_read + 698
        0x00002f58:    e00b        ..      B        0x2f72 ; touch_read + 706
        0x00002f5a:    2000        .       MOVS     r0,#0
        0x00002f5c:    f88d004a    ..J.    STRB     r0,[sp,#0x4a]
        0x00002f60:    e008        ..      B        0x2f74 ; touch_read + 708
        0x00002f62:    2001        .       MOVS     r0,#1
        0x00002f64:    f88d004a    ..J.    STRB     r0,[sp,#0x4a]
        0x00002f68:    e004        ..      B        0x2f74 ; touch_read + 708
        0x00002f6a:    2002        .       MOVS     r0,#2
        0x00002f6c:    f88d004a    ..J.    STRB     r0,[sp,#0x4a]
        0x00002f70:    e000        ..      B        0x2f74 ; touch_read + 708
        0x00002f72:    e7ff        ..      B        0x2f74 ; touch_read + 708
        0x00002f74:    2000        .       MOVS     r0,#0
        0x00002f76:    f88d0049    ..I.    STRB     r0,[sp,#0x49]
        0x00002f7a:    e7ff        ..      B        0x2f7c ; touch_read + 716
        0x00002f7c:    f89d0049    ..I.    LDRB     r0,[sp,#0x49]
        0x00002f80:    287f        .(      CMP      r0,#0x7f
        0x00002f82:    f30080f2    ....    BGT.W    0x316a ; touch_read + 1210
        0x00002f86:    e7ff        ..      B        0x2f88 ; touch_read + 728
        0x00002f88:    f2401002    @...    MOVW     r0,#0x102
        0x00002f8c:    f2c20000    ....    MOVT     r0,#0x2000
        0x00002f90:    7800        .x      LDRB     r0,[r0,#0]
        0x00002f92:    2801        .(      CMP      r0,#1
        0x00002f94:    d010        ..      BEQ      0x2fb8 ; touch_read + 776
        0x00002f96:    e7ff        ..      B        0x2f98 ; touch_read + 744
        0x00002f98:    f2401002    @...    MOVW     r0,#0x102
        0x00002f9c:    f2c20000    ....    MOVT     r0,#0x2000
        0x00002fa0:    7800        .x      LDRB     r0,[r0,#0]
        0x00002fa2:    2803        .(      CMP      r0,#3
        0x00002fa4:    d008        ..      BEQ      0x2fb8 ; touch_read + 776
        0x00002fa6:    e7ff        ..      B        0x2fa8 ; touch_read + 760
        0x00002fa8:    f2401002    @...    MOVW     r0,#0x102
        0x00002fac:    f2c20000    ....    MOVT     r0,#0x2000
        0x00002fb0:    7800        .x      LDRB     r0,[r0,#0]
        0x00002fb2:    2805        .(      CMP      r0,#5
        0x00002fb4:    d169        i.      BNE      0x308a ; touch_read + 986
        0x00002fb6:    e7ff        ..      B        0x2fb8 ; touch_read + 776
        0x00002fb8:    2000        .       MOVS     r0,#0
        0x00002fba:    f88d0048    ..H.    STRB     r0,[sp,#0x48]
        0x00002fbe:    e7ff        ..      B        0x2fc0 ; touch_read + 784
        0x00002fc0:    f89d0048    ..H.    LDRB     r0,[sp,#0x48]
        0x00002fc4:    2800        .(      CMP      r0,#0
        0x00002fc6:    dc0d        ..      BGT      0x2fe4 ; touch_read + 820
        0x00002fc8:    e7ff        ..      B        0x2fca ; touch_read + 794
        0x00002fca:    f64401c4    D...    MOV      r1,#0x48c4
        0x00002fce:    f2c40100    ....    MOVT     r1,#0x4000
        0x00002fd2:    2000        .       MOVS     r0,#0
        0x00002fd4:    6008        .`      STR      r0,[r1,#0]
        0x00002fd6:    e7ff        ..      B        0x2fd8 ; touch_read + 808
        0x00002fd8:    f89d0048    ..H.    LDRB     r0,[sp,#0x48]
        0x00002fdc:    3001        .0      ADDS     r0,#1
        0x00002fde:    f88d0048    ..H.    STRB     r0,[sp,#0x48]
        0x00002fe2:    e7ed        ..      B        0x2fc0 ; touch_read + 784
        0x00002fe4:    2000        .       MOVS     r0,#0
        0x00002fe6:    f88d0047    ..G.    STRB     r0,[sp,#0x47]
        0x00002fea:    e7ff        ..      B        0x2fec ; touch_read + 828
        0x00002fec:    f89d0047    ..G.    LDRB     r0,[sp,#0x47]
        0x00002ff0:    2800        .(      CMP      r0,#0
        0x00002ff2:    dc0d        ..      BGT      0x3010 ; touch_read + 864
        0x00002ff4:    e7ff        ..      B        0x2ff6 ; touch_read + 838
        0x00002ff6:    f64401c0    D...    MOV      r1,#0x48c0
        0x00002ffa:    f2c40100    ....    MOVT     r1,#0x4000
        0x00002ffe:    2001        .       MOVS     r0,#1
        0x00003000:    6008        .`      STR      r0,[r1,#0]
        0x00003002:    e7ff        ..      B        0x3004 ; touch_read + 852
        0x00003004:    f89d0047    ..G.    LDRB     r0,[sp,#0x47]
        0x00003008:    3001        .0      ADDS     r0,#1
        0x0000300a:    f88d0047    ..G.    STRB     r0,[sp,#0x47]
        0x0000300e:    e7ed        ..      B        0x2fec ; touch_read + 828
        0x00003010:    2000        .       MOVS     r0,#0
        0x00003012:    f88d0046    ..F.    STRB     r0,[sp,#0x46]
        0x00003016:    e7ff        ..      B        0x3018 ; touch_read + 872
        0x00003018:    f89d0046    ..F.    LDRB     r0,[sp,#0x46]
        0x0000301c:    2800        .(      CMP      r0,#0
        0x0000301e:    dc0d        ..      BGT      0x303c ; touch_read + 908
        0x00003020:    e7ff        ..      B        0x3022 ; touch_read + 882
        0x00003022:    f64401cc    D...    MOV      r1,#0x48cc
        0x00003026:    f2c40100    ....    MOVT     r1,#0x4000
        0x0000302a:    2001        .       MOVS     r0,#1
        0x0000302c:    6008        .`      STR      r0,[r1,#0]
        0x0000302e:    e7ff        ..      B        0x3030 ; touch_read + 896
        0x00003030:    f89d0046    ..F.    LDRB     r0,[sp,#0x46]
        0x00003034:    3001        .0      ADDS     r0,#1
        0x00003036:    f88d0046    ..F.    STRB     r0,[sp,#0x46]
        0x0000303a:    e7ed        ..      B        0x3018 ; touch_read + 872
        0x0000303c:    2000        .       MOVS     r0,#0
        0x0000303e:    f88d0045    ..E.    STRB     r0,[sp,#0x45]
        0x00003042:    e7ff        ..      B        0x3044 ; touch_read + 916
        0x00003044:    f89d0045    ..E.    LDRB     r0,[sp,#0x45]
        0x00003048:    2800        .(      CMP      r0,#0
        0x0000304a:    dc0d        ..      BGT      0x3068 ; touch_read + 952
        0x0000304c:    e7ff        ..      B        0x304e ; touch_read + 926
        0x0000304e:    f64401c8    D...    MOV      r1,#0x48c8
        0x00003052:    f2c40100    ....    MOVT     r1,#0x4000
        0x00003056:    2000        .       MOVS     r0,#0
        0x00003058:    6008        .`      STR      r0,[r1,#0]
        0x0000305a:    e7ff        ..      B        0x305c ; touch_read + 940
        0x0000305c:    f89d0045    ..E.    LDRB     r0,[sp,#0x45]
        0x00003060:    3001        .0      ADDS     r0,#1
        0x00003062:    f88d0045    ..E.    STRB     r0,[sp,#0x45]
        0x00003066:    e7ed        ..      B        0x3044 ; touch_read + 916
        0x00003068:    200f        .       MOVS     r0,#0xf
        0x0000306a:    f7fff903    ....    BL       adc_read ; 0x2274
        0x0000306e:    0880        ..      LSRS     r0,r0,#2
        0x00003070:    f89d204a    ..J     LDRB     r2,[sp,#0x4a]
        0x00003074:    f2401114    @...    MOVW     r1,#0x114
        0x00003078:    f2c20100    ....    MOVT     r1,#0x2000
        0x0000307c:    eb012102    ...!    ADD      r1,r1,r2,LSL #8
        0x00003080:    f89d2049    ..I     LDRB     r2,[sp,#0x49]
        0x00003084:    f8210012    !...    STRH     r0,[r1,r2,LSL #1]
        0x00003088:    e068        h.      B        0x315c ; touch_read + 1196
        0x0000308a:    2000        .       MOVS     r0,#0
        0x0000308c:    f88d0044    ..D.    STRB     r0,[sp,#0x44]
        0x00003090:    e7ff        ..      B        0x3092 ; touch_read + 994
        0x00003092:    f89d0044    ..D.    LDRB     r0,[sp,#0x44]
        0x00003096:    2800        .(      CMP      r0,#0
        0x00003098:    dc0d        ..      BGT      0x30b6 ; touch_read + 1030
        0x0000309a:    e7ff        ..      B        0x309c ; touch_read + 1004
        0x0000309c:    f64401c4    D...    MOV      r1,#0x48c4
        0x000030a0:    f2c40100    ....    MOVT     r1,#0x4000
        0x000030a4:    2001        .       MOVS     r0,#1
        0x000030a6:    6008        .`      STR      r0,[r1,#0]
        0x000030a8:    e7ff        ..      B        0x30aa ; touch_read + 1018
        0x000030aa:    f89d0044    ..D.    LDRB     r0,[sp,#0x44]
        0x000030ae:    3001        .0      ADDS     r0,#1
        0x000030b0:    f88d0044    ..D.    STRB     r0,[sp,#0x44]
        0x000030b4:    e7ed        ..      B        0x3092 ; touch_read + 994
        0x000030b6:    2000        .       MOVS     r0,#0
        0x000030b8:    f88d0043    ..C.    STRB     r0,[sp,#0x43]
        0x000030bc:    e7ff        ..      B        0x30be ; touch_read + 1038
        0x000030be:    f89d0043    ..C.    LDRB     r0,[sp,#0x43]
        0x000030c2:    2800        .(      CMP      r0,#0
        0x000030c4:    dc0d        ..      BGT      0x30e2 ; touch_read + 1074
        0x000030c6:    e7ff        ..      B        0x30c8 ; touch_read + 1048
        0x000030c8:    f64401c0    D...    MOV      r1,#0x48c0
        0x000030cc:    f2c40100    ....    MOVT     r1,#0x4000
        0x000030d0:    2000        .       MOVS     r0,#0
        0x000030d2:    6008        .`      STR      r0,[r1,#0]
        0x000030d4:    e7ff        ..      B        0x30d6 ; touch_read + 1062
        0x000030d6:    f89d0043    ..C.    LDRB     r0,[sp,#0x43]
        0x000030da:    3001        .0      ADDS     r0,#1
        0x000030dc:    f88d0043    ..C.    STRB     r0,[sp,#0x43]
        0x000030e0:    e7ed        ..      B        0x30be ; touch_read + 1038
        0x000030e2:    2000        .       MOVS     r0,#0
        0x000030e4:    f88d0042    ..B.    STRB     r0,[sp,#0x42]
        0x000030e8:    e7ff        ..      B        0x30ea ; touch_read + 1082
        0x000030ea:    f89d0042    ..B.    LDRB     r0,[sp,#0x42]
        0x000030ee:    2800        .(      CMP      r0,#0
        0x000030f0:    dc0d        ..      BGT      0x310e ; touch_read + 1118
        0x000030f2:    e7ff        ..      B        0x30f4 ; touch_read + 1092
        0x000030f4:    f64401cc    D...    MOV      r1,#0x48cc
        0x000030f8:    f2c40100    ....    MOVT     r1,#0x4000
        0x000030fc:    2000        .       MOVS     r0,#0
        0x000030fe:    6008        .`      STR      r0,[r1,#0]
        0x00003100:    e7ff        ..      B        0x3102 ; touch_read + 1106
        0x00003102:    f89d0042    ..B.    LDRB     r0,[sp,#0x42]
        0x00003106:    3001        .0      ADDS     r0,#1
        0x00003108:    f88d0042    ..B.    STRB     r0,[sp,#0x42]
        0x0000310c:    e7ed        ..      B        0x30ea ; touch_read + 1082
        0x0000310e:    2000        .       MOVS     r0,#0
        0x00003110:    f88d0041    ..A.    STRB     r0,[sp,#0x41]
        0x00003114:    e7ff        ..      B        0x3116 ; touch_read + 1126
        0x00003116:    f89d0041    ..A.    LDRB     r0,[sp,#0x41]
        0x0000311a:    2800        .(      CMP      r0,#0
        0x0000311c:    dc0d        ..      BGT      0x313a ; touch_read + 1162
        0x0000311e:    e7ff        ..      B        0x3120 ; touch_read + 1136
        0x00003120:    f64401c8    D...    MOV      r1,#0x48c8
        0x00003124:    f2c40100    ....    MOVT     r1,#0x4000
        0x00003128:    2001        .       MOVS     r0,#1
        0x0000312a:    6008        .`      STR      r0,[r1,#0]
        0x0000312c:    e7ff        ..      B        0x312e ; touch_read + 1150
        0x0000312e:    f89d0041    ..A.    LDRB     r0,[sp,#0x41]
        0x00003132:    3001        .0      ADDS     r0,#1
        0x00003134:    f88d0041    ..A.    STRB     r0,[sp,#0x41]
        0x00003138:    e7ed        ..      B        0x3116 ; touch_read + 1126
        0x0000313a:    2004        .       MOVS     r0,#4
        0x0000313c:    f7fff89a    ....    BL       adc_read ; 0x2274
        0x00003140:    0880        ..      LSRS     r0,r0,#2
        0x00003142:    f89d204a    ..J     LDRB     r2,[sp,#0x4a]
        0x00003146:    f240411a    @..A    MOV      r1,#0x41a
        0x0000314a:    f2c20100    ....    MOVT     r1,#0x2000
        0x0000314e:    eb012102    ...!    ADD      r1,r1,r2,LSL #8
        0x00003152:    f89d2049    ..I     LDRB     r2,[sp,#0x49]
        0x00003156:    f8210012    !...    STRH     r0,[r1,r2,LSL #1]
        0x0000315a:    e7ff        ..      B        0x315c ; touch_read + 1196
        0x0000315c:    e7ff        ..      B        0x315e ; touch_read + 1198
        0x0000315e:    f89d0049    ..I.    LDRB     r0,[sp,#0x49]
        0x00003162:    3001        .0      ADDS     r0,#1
        0x00003164:    f88d0049    ..I.    STRB     r0,[sp,#0x49]
        0x00003168:    e708        ..      B        0x2f7c ; touch_read + 716
        0x0000316a:    e17e        ~.      B        0x346a ; touch_read + 1978
        0x0000316c:    f2401002    @...    MOVW     r0,#0x102
        0x00003170:    f2c20000    ....    MOVT     r0,#0x2000
        0x00003174:    7800        .x      LDRB     r0,[r0,#0]
        0x00003176:    2807        .(      CMP      r0,#7
        0x00003178:    f0408176    @.v.    BNE.W    0x3468 ; touch_read + 1976
        0x0000317c:    e7ff        ..      B        0x317e ; touch_read + 1230
        0x0000317e:    2000        .       MOVS     r0,#0
        0x00003180:    f88d0040    ..@.    STRB     r0,[sp,#0x40]
        0x00003184:    e7ff        ..      B        0x3186 ; touch_read + 1238
        0x00003186:    f89d0040    ..@.    LDRB     r0,[sp,#0x40]
        0x0000318a:    2802        .(      CMP      r0,#2
        0x0000318c:    dc58        X.      BGT      0x3240 ; touch_read + 1424
        0x0000318e:    e7ff        ..      B        0x3190 ; touch_read + 1248
        0x00003190:    2000        .       MOVS     r0,#0
        0x00003192:    900f        ..      STR      r0,[sp,#0x3c]
        0x00003194:    900e        ..      STR      r0,[sp,#0x38]
        0x00003196:    2010        .       MOVS     r0,#0x10
        0x00003198:    f88d0037    ..7.    STRB     r0,[sp,#0x37]
        0x0000319c:    e7ff        ..      B        0x319e ; touch_read + 1262
        0x0000319e:    f89d0037    ..7.    LDRB     r0,[sp,#0x37]
        0x000031a2:    286f        o(      CMP      r0,#0x6f
        0x000031a4:    dc25        %.      BGT      0x31f2 ; touch_read + 1346
        0x000031a6:    e7ff        ..      B        0x31a8 ; touch_read + 1272
        0x000031a8:    f89d1040    ..@.    LDRB     r1,[sp,#0x40]
        0x000031ac:    f2401014    @...    MOVW     r0,#0x114
        0x000031b0:    f2c20000    ....    MOVT     r0,#0x2000
        0x000031b4:    eb002001    ...     ADD      r0,r0,r1,LSL #8
        0x000031b8:    f89d1037    ..7.    LDRB     r1,[sp,#0x37]
        0x000031bc:    f8301011    0...    LDRH     r1,[r0,r1,LSL #1]
        0x000031c0:    980f        ..      LDR      r0,[sp,#0x3c]
        0x000031c2:    4408        .D      ADD      r0,r0,r1
        0x000031c4:    900f        ..      STR      r0,[sp,#0x3c]
        0x000031c6:    f89d1040    ..@.    LDRB     r1,[sp,#0x40]
        0x000031ca:    f240401a    @..@    MOV      r0,#0x41a
        0x000031ce:    f2c20000    ....    MOVT     r0,#0x2000
        0x000031d2:    eb002001    ...     ADD      r0,r0,r1,LSL #8
        0x000031d6:    f89d1037    ..7.    LDRB     r1,[sp,#0x37]
        0x000031da:    f8301011    0...    LDRH     r1,[r0,r1,LSL #1]
        0x000031de:    980e        ..      LDR      r0,[sp,#0x38]
        0x000031e0:    4408        .D      ADD      r0,r0,r1
        0x000031e2:    900e        ..      STR      r0,[sp,#0x38]
        0x000031e4:    e7ff        ..      B        0x31e6 ; touch_read + 1334
        0x000031e6:    f89d0037    ..7.    LDRB     r0,[sp,#0x37]
        0x000031ea:    3001        .0      ADDS     r0,#1
        0x000031ec:    f88d0037    ..7.    STRB     r0,[sp,#0x37]
        0x000031f0:    e7d5        ..      B        0x319e ; touch_read + 1262
        0x000031f2:    980f        ..      LDR      r0,[sp,#0x3c]
        0x000031f4:    f64a21ab    J..!    MOV      r1,#0xaaab
        0x000031f8:    f6ca21aa    ...!    MOVT     r1,#0xaaaa
        0x000031fc:    fba02001    ...     UMULL    r2,r0,r0,r1
        0x00003200:    0980        ..      LSRS     r0,r0,#6
        0x00003202:    900f        ..      STR      r0,[sp,#0x3c]
        0x00003204:    980e        ..      LDR      r0,[sp,#0x38]
        0x00003206:    fba01001    ....    UMULL    r1,r0,r0,r1
        0x0000320a:    0980        ..      LSRS     r0,r0,#6
        0x0000320c:    900e        ..      STR      r0,[sp,#0x38]
        0x0000320e:    980f        ..      LDR      r0,[sp,#0x3c]
        0x00003210:    f89d2040    ..@     LDRB     r2,[sp,#0x40]
        0x00003214:    f2404114    @..A    MOV      r1,#0x414
        0x00003218:    f2c20100    ....    MOVT     r1,#0x2000
        0x0000321c:    f8210012    !...    STRH     r0,[r1,r2,LSL #1]
        0x00003220:    980e        ..      LDR      r0,[sp,#0x38]
        0x00003222:    f89d2040    ..@     LDRB     r2,[sp,#0x40]
        0x00003226:    f240711a    @..q    MOV      r1,#0x71a
        0x0000322a:    f2c20100    ....    MOVT     r1,#0x2000
        0x0000322e:    f8210012    !...    STRH     r0,[r1,r2,LSL #1]
        0x00003232:    e7ff        ..      B        0x3234 ; touch_read + 1412
        0x00003234:    f89d0040    ..@.    LDRB     r0,[sp,#0x40]
        0x00003238:    3001        .0      ADDS     r0,#1
        0x0000323a:    f88d0040    ..@.    STRB     r0,[sp,#0x40]
        0x0000323e:    e7a2        ..      B        0x3186 ; touch_read + 1238
        0x00003240:    2000        .       MOVS     r0,#0
        0x00003242:    f88d0036    ..6.    STRB     r0,[sp,#0x36]
        0x00003246:    f2404114    @..A    MOV      r1,#0x414
        0x0000324a:    f2c20100    ....    MOVT     r1,#0x2000
        0x0000324e:    8808        ..      LDRH     r0,[r1,#0]
        0x00003250:    8849        I.      LDRH     r1,[r1,#2]
        0x00003252:    1a40        @.      SUBS     r0,r0,r1
        0x00003254:    f1b03fff    ...?    CMP      r0,#0xffffffff
        0x00003258:    dc09        ..      BGT      0x326e ; touch_read + 1470
        0x0000325a:    e7ff        ..      B        0x325c ; touch_read + 1452
        0x0000325c:    f2404014    @..@    MOV      r0,#0x414
        0x00003260:    f2c20000    ....    MOVT     r0,#0x2000
        0x00003264:    8801        ..      LDRH     r1,[r0,#0]
        0x00003266:    8840        @.      LDRH     r0,[r0,#2]
        0x00003268:    1a40        @.      SUBS     r0,r0,r1
        0x0000326a:    9006        ..      STR      r0,[sp,#0x18]
        0x0000326c:    e008        ..      B        0x3280 ; touch_read + 1488
        0x0000326e:    f2404114    @..A    MOV      r1,#0x414
        0x00003272:    f2c20100    ....    MOVT     r1,#0x2000
        0x00003276:    8808        ..      LDRH     r0,[r1,#0]
        0x00003278:    8849        I.      LDRH     r1,[r1,#2]
        0x0000327a:    1a40        @.      SUBS     r0,r0,r1
        0x0000327c:    9006        ..      STR      r0,[sp,#0x18]
        0x0000327e:    e7ff        ..      B        0x3280 ; touch_read + 1488
        0x00003280:    9806        ..      LDR      r0,[sp,#0x18]
        0x00003282:    2805        .(      CMP      r0,#5
        0x00003284:    f30080ef    ....    BGT.W    0x3466 ; touch_read + 1974
        0x00003288:    e7ff        ..      B        0x328a ; touch_read + 1498
        0x0000328a:    f2404114    @..A    MOV      r1,#0x414
        0x0000328e:    f2c20100    ....    MOVT     r1,#0x2000
        0x00003292:    8808        ..      LDRH     r0,[r1,#0]
        0x00003294:    8889        ..      LDRH     r1,[r1,#4]
        0x00003296:    1a40        @.      SUBS     r0,r0,r1
        0x00003298:    f1b03fff    ...?    CMP      r0,#0xffffffff
        0x0000329c:    dc09        ..      BGT      0x32b2 ; touch_read + 1538
        0x0000329e:    e7ff        ..      B        0x32a0 ; touch_read + 1520
        0x000032a0:    f2404014    @..@    MOV      r0,#0x414
        0x000032a4:    f2c20000    ....    MOVT     r0,#0x2000
        0x000032a8:    8801        ..      LDRH     r1,[r0,#0]
        0x000032aa:    8880        ..      LDRH     r0,[r0,#4]
        0x000032ac:    1a40        @.      SUBS     r0,r0,r1
        0x000032ae:    9005        ..      STR      r0,[sp,#0x14]
        0x000032b0:    e008        ..      B        0x32c4 ; touch_read + 1556
        0x000032b2:    f2404114    @..A    MOV      r1,#0x414
        0x000032b6:    f2c20100    ....    MOVT     r1,#0x2000
        0x000032ba:    8808        ..      LDRH     r0,[r1,#0]
        0x000032bc:    8889        ..      LDRH     r1,[r1,#4]
        0x000032be:    1a40        @.      SUBS     r0,r0,r1
        0x000032c0:    9005        ..      STR      r0,[sp,#0x14]
        0x000032c2:    e7ff        ..      B        0x32c4 ; touch_read + 1556
        0x000032c4:    9805        ..      LDR      r0,[sp,#0x14]
        0x000032c6:    2805        .(      CMP      r0,#5
        0x000032c8:    f30080cd    ....    BGT.W    0x3466 ; touch_read + 1974
        0x000032cc:    e7ff        ..      B        0x32ce ; touch_read + 1566
        0x000032ce:    f240711a    @..q    MOV      r1,#0x71a
        0x000032d2:    f2c20100    ....    MOVT     r1,#0x2000
        0x000032d6:    8808        ..      LDRH     r0,[r1,#0]
        0x000032d8:    8849        I.      LDRH     r1,[r1,#2]
        0x000032da:    1a40        @.      SUBS     r0,r0,r1
        0x000032dc:    f1b03fff    ...?    CMP      r0,#0xffffffff
        0x000032e0:    dc09        ..      BGT      0x32f6 ; touch_read + 1606
        0x000032e2:    e7ff        ..      B        0x32e4 ; touch_read + 1588
        0x000032e4:    f240701a    @..p    MOV      r0,#0x71a
        0x000032e8:    f2c20000    ....    MOVT     r0,#0x2000
        0x000032ec:    8801        ..      LDRH     r1,[r0,#0]
        0x000032ee:    8840        @.      LDRH     r0,[r0,#2]
        0x000032f0:    1a40        @.      SUBS     r0,r0,r1
        0x000032f2:    9004        ..      STR      r0,[sp,#0x10]
        0x000032f4:    e008        ..      B        0x3308 ; touch_read + 1624
        0x000032f6:    f240711a    @..q    MOV      r1,#0x71a
        0x000032fa:    f2c20100    ....    MOVT     r1,#0x2000
        0x000032fe:    8808        ..      LDRH     r0,[r1,#0]
        0x00003300:    8849        I.      LDRH     r1,[r1,#2]
        0x00003302:    1a40        @.      SUBS     r0,r0,r1
        0x00003304:    9004        ..      STR      r0,[sp,#0x10]
        0x00003306:    e7ff        ..      B        0x3308 ; touch_read + 1624
        0x00003308:    9804        ..      LDR      r0,[sp,#0x10]
        0x0000330a:    2805        .(      CMP      r0,#5
        0x0000330c:    f30080ab    ....    BGT.W    0x3466 ; touch_read + 1974
        0x00003310:    e7ff        ..      B        0x3312 ; touch_read + 1634
        0x00003312:    f240711a    @..q    MOV      r1,#0x71a
        0x00003316:    f2c20100    ....    MOVT     r1,#0x2000
        0x0000331a:    8808        ..      LDRH     r0,[r1,#0]
        0x0000331c:    8889        ..      LDRH     r1,[r1,#4]
        0x0000331e:    1a40        @.      SUBS     r0,r0,r1
        0x00003320:    f1b03fff    ...?    CMP      r0,#0xffffffff
        0x00003324:    dc09        ..      BGT      0x333a ; touch_read + 1674
        0x00003326:    e7ff        ..      B        0x3328 ; touch_read + 1656
        0x00003328:    f240701a    @..p    MOV      r0,#0x71a
        0x0000332c:    f2c20000    ....    MOVT     r0,#0x2000
        0x00003330:    8801        ..      LDRH     r1,[r0,#0]
        0x00003332:    8880        ..      LDRH     r0,[r0,#4]
        0x00003334:    1a40        @.      SUBS     r0,r0,r1
        0x00003336:    9003        ..      STR      r0,[sp,#0xc]
        0x00003338:    e008        ..      B        0x334c ; touch_read + 1692
        0x0000333a:    f240711a    @..q    MOV      r1,#0x71a
        0x0000333e:    f2c20100    ....    MOVT     r1,#0x2000
        0x00003342:    8808        ..      LDRH     r0,[r1,#0]
        0x00003344:    8889        ..      LDRH     r1,[r1,#4]
        0x00003346:    1a40        @.      SUBS     r0,r0,r1
        0x00003348:    9003        ..      STR      r0,[sp,#0xc]
        0x0000334a:    e7ff        ..      B        0x334c ; touch_read + 1692
        0x0000334c:    9803        ..      LDR      r0,[sp,#0xc]
        0x0000334e:    2805        .(      CMP      r0,#5
        0x00003350:    f3008089    ....    BGT.W    0x3466 ; touch_read + 1974
        0x00003354:    e7ff        ..      B        0x3356 ; touch_read + 1702
        0x00003356:    f2404114    @..A    MOV      r1,#0x414
        0x0000335a:    f2c20100    ....    MOVT     r1,#0x2000
        0x0000335e:    9101        ..      STR      r1,[sp,#4]
        0x00003360:    884a        J.      LDRH     r2,[r1,#2]
        0x00003362:    8808        ..      LDRH     r0,[r1,#0]
        0x00003364:    4410        .D      ADD      r0,r0,r2
        0x00003366:    8008        ..      STRH     r0,[r1,#0]
        0x00003368:    888a        ..      LDRH     r2,[r1,#4]
        0x0000336a:    8808        ..      LDRH     r0,[r1,#0]
        0x0000336c:    4410        .D      ADD      r0,r0,r2
        0x0000336e:    8008        ..      STRH     r0,[r1,#0]
        0x00003370:    8808        ..      LDRH     r0,[r1,#0]
        0x00003372:    f2455356    E.VS    MOV      r3,#0x5556
        0x00003376:    f2c55355    ..US    MOVT     r3,#0x5555
        0x0000337a:    fba02003    ...     UMULL    r2,r0,r0,r3
        0x0000337e:    8008        ..      STRH     r0,[r1,#0]
        0x00003380:    f240701a    @..p    MOV      r0,#0x71a
        0x00003384:    f2c20000    ....    MOVT     r0,#0x2000
        0x00003388:    9002        ..      STR      r0,[sp,#8]
        0x0000338a:    f8b0c002    ....    LDRH     r12,[r0,#2]
        0x0000338e:    8802        ..      LDRH     r2,[r0,#0]
        0x00003390:    4462        bD      ADD      r2,r2,r12
        0x00003392:    8002        ..      STRH     r2,[r0,#0]
        0x00003394:    f8b0c004    ....    LDRH     r12,[r0,#4]
        0x00003398:    8802        ..      LDRH     r2,[r0,#0]
        0x0000339a:    4462        bD      ADD      r2,r2,r12
        0x0000339c:    8002        ..      STRH     r2,[r0,#0]
        0x0000339e:    8802        ..      LDRH     r2,[r0,#0]
        0x000033a0:    fba23203    ...2    UMULL    r3,r2,r2,r3
        0x000033a4:    8002        ..      STRH     r2,[r0,#0]
        0x000033a6:    2201        ."      MOVS     r2,#1
        0x000033a8:    f88d2036    ..6     STRB     r2,[sp,#0x36]
        0x000033ac:    f240130d    @...    MOV      r3,#0x10d
        0x000033b0:    f2c20300    ....    MOVT     r3,#0x2000
        0x000033b4:    701a        .p      STRB     r2,[r3,#0]
        0x000033b6:    f240130e    @...    MOVW     r3,#0x10e
        0x000033ba:    f2c20300    ....    MOVT     r3,#0x2000
        0x000033be:    2232        2"      MOVS     r2,#0x32
        0x000033c0:    701a        .p      STRB     r2,[r3,#0]
        0x000033c2:    8809        ..      LDRH     r1,[r1,#0]
        0x000033c4:    f8ad104c    ..L.    STRH     r1,[sp,#0x4c]
        0x000033c8:    8800        ..      LDRH     r0,[r0,#0]
        0x000033ca:    f8ad004e    ..N.    STRH     r0,[sp,#0x4e]
        0x000033ce:    f2400030    @.0.    MOVW     r0,#0x30
        0x000033d2:    f2c20000    ....    MOVT     r0,#0x2000
        0x000033d6:    7800        .x      LDRB     r0,[r0,#0]
        0x000033d8:    2805        .(      CMP      r0,#5
        0x000033da:    d116        ..      BNE      0x340a ; touch_read + 1882
        0x000033dc:    e7ff        ..      B        0x33de ; touch_read + 1838
        0x000033de:    9813        ..      LDR      r0,[sp,#0x4c]
        0x000033e0:    f2400152    @.R.    MOVW     r1,#0x52
        0x000033e4:    f2c20100    ....    MOVT     r1,#0x2000
        0x000033e8:    680b        .h      LDR      r3,[r1,#0]
        0x000033ea:    f2400156    @.V.    MOVW     r1,#0x56
        0x000033ee:    f2c20100    ....    MOVT     r1,#0x2000
        0x000033f2:    f2400232    @.2.    MOVW     r2,#0x32
        0x000033f6:    f2c20200    ....    MOVT     r2,#0x2000
        0x000033fa:    f7feffad    ....    BL       calibratePoint ; 0x2358
        0x000033fe:    f8cd0032    ..2.    STR      r0,[sp,#0x32]
        0x00003402:    f8dd0032    ..2.    LDR      r0,[sp,#0x32]
        0x00003406:    9013        ..      STR      r0,[sp,#0x4c]
        0x00003408:    e7ff        ..      B        0x340a ; touch_read + 1882
        0x0000340a:    2011        .       MOVS     r0,#0x11
        0x0000340c:    f88d0031    ..1.    STRB     r0,[sp,#0x31]
        0x00003410:    f89d004d    ..M.    LDRB     r0,[sp,#0x4d]
        0x00003414:    f88d0030    ..0.    STRB     r0,[sp,#0x30]
        0x00003418:    f8bd004c    ..L.    LDRH     r0,[sp,#0x4c]
        0x0000341c:    f88d002f    ../.    STRB     r0,[sp,#0x2f]
        0x00003420:    f89d004f    ..O.    LDRB     r0,[sp,#0x4f]
        0x00003424:    f88d002e    ....    STRB     r0,[sp,#0x2e]
        0x00003428:    f8bd004e    ..N.    LDRH     r0,[sp,#0x4e]
        0x0000342c:    f88d002d    ..-.    STRB     r0,[sp,#0x2d]
        0x00003430:    f89d0031    ..1.    LDRB     r0,[sp,#0x31]
        0x00003434:    f240019f    @...    MOVW     r1,#0x9f
        0x00003438:    f2c20100    ....    MOVT     r1,#0x2000
        0x0000343c:    7008        .p      STRB     r0,[r1,#0]
        0x0000343e:    f89d0030    ..0.    LDRB     r0,[sp,#0x30]
        0x00003442:    7048        Hp      STRB     r0,[r1,#1]
        0x00003444:    f89d002f    ../.    LDRB     r0,[sp,#0x2f]
        0x00003448:    7088        .p      STRB     r0,[r1,#2]
        0x0000344a:    f89d002e    ....    LDRB     r0,[sp,#0x2e]
        0x0000344e:    70c8        .p      STRB     r0,[r1,#3]
        0x00003450:    f89d002d    ..-.    LDRB     r0,[sp,#0x2d]
        0x00003454:    7108        .q      STRB     r0,[r1,#4]
        0x00003456:    f2410000    A...    MOVW     r0,#0x1000
        0x0000345a:    f2c40007    ....    MOVT     r0,#0x4007
        0x0000345e:    2205        ."      MOVS     r2,#5
        0x00003460:    f7fefe60    ..`.    BL       UART_Write ; 0x2124
        0x00003464:    e7ff        ..      B        0x3466 ; touch_read + 1974
        0x00003466:    e7ff        ..      B        0x3468 ; touch_read + 1976
        0x00003468:    e7ff        ..      B        0x346a ; touch_read + 1978
        0x0000346a:    e7ff        ..      B        0x346c ; touch_read + 1980
        0x0000346c:    b014        ..      ADD      sp,sp,#0x50
        0x0000346e:    bd80        ..      POP      {r7,pc}
    i.__0printf
    __0printf
    __1printf
    __2printf
    __c89printf
    printf
        0x00003470:    b40f        ..      PUSH     {r0-r3}
        0x00003472:    4b05        .K      LDR      r3,[pc,#20] ; [0x3488] = 0x24dd
        0x00003474:    b510        ..      PUSH     {r4,lr}
        0x00003476:    a903        ..      ADD      r1,sp,#0xc
        0x00003478:    4a04        .J      LDR      r2,[pc,#16] ; [0x348c] = 0x200000ac
        0x0000347a:    9802        ..      LDR      r0,[sp,#8]
        0x0000347c:    f000f8da    ....    BL       _printf_core ; 0x3634
        0x00003480:    bc10        ..      POP      {r4}
        0x00003482:    f85dfb14    ]...    LDR      pc,[sp],#0x14
    $d
        0x00003486:    0000        ..      DCW    0
        0x00003488:    000024dd    .$..    DCD    9437
        0x0000348c:    200000ac    ...     DCD    536871084
    $t
    i.__scatterload_copy
    __scatterload_copy
        0x00003490:    e002        ..      B        0x3498 ; __scatterload_copy + 8
        0x00003492:    c808        ..      LDM      r0!,{r3}
        0x00003494:    1f12        ..      SUBS     r2,r2,#4
        0x00003496:    c108        ..      STM      r1!,{r3}
        0x00003498:    2a00        .*      CMP      r2,#0
        0x0000349a:    d1fa        ..      BNE      0x3492 ; __scatterload_copy + 2
        0x0000349c:    4770        pG      BX       lr
    i.__scatterload_null
    __scatterload_null
        0x0000349e:    4770        pG      BX       lr
    i.__scatterload_zeroinit
    __scatterload_zeroinit
        0x000034a0:    2000        .       MOVS     r0,#0
        0x000034a2:    e001        ..      B        0x34a8 ; __scatterload_zeroinit + 8
        0x000034a4:    c101        ..      STM      r1!,{r0}
        0x000034a6:    1f12        ..      SUBS     r2,r2,#4
        0x000034a8:    2a00        .*      CMP      r2,#0
        0x000034aa:    d1fb        ..      BNE      0x34a4 ; __scatterload_zeroinit + 4
        0x000034ac:    4770        pG      BX       lr
        0x000034ae:    0000        ..      MOVS     r0,r0
    i._fp_digits
    _fp_digits
        0x000034b0:    e92d5fff    -.._    PUSH     {r0-r12,lr}
        0x000034b4:    b082        ..      SUB      sp,sp,#8
        0x000034b6:    2100        .!      MOVS     r1,#0
        0x000034b8:    e9dd3004    ...0    LDRD     r3,r0,[sp,#0x10]
        0x000034bc:    0d02        ..      LSRS     r2,r0,#20
        0x000034be:    f8ddb040    ..@.    LDR      r11,[sp,#0x40]
        0x000034c2:    4303        .C      ORRS     r3,r3,r0
        0x000034c4:    d018        ..      BEQ      0x34f8 ; _fp_digits + 72
        0x000034c6:    f6445010    D..P    MOV      r0,#0x4d10
        0x000034ca:    f2a232ff    ...2    SUB      r2,r2,#0x3ff
        0x000034ce:    4342        BC      MULS     r2,r0,r2
        0x000034d0:    1415        ..      ASRS     r5,r2,#16
        0x000034d2:    9811        ..      LDR      r0,[sp,#0x44]
        0x000034d4:    2801        .(      CMP      r0,#1
        0x000034d6:    d01f        ..      BEQ      0x3518 ; _fp_digits + 104
        0x000034d8:    eba5000b    ....    SUB      r0,r5,r11
        0x000034dc:    1c40        @.      ADDS     r0,r0,#1
        0x000034de:    ea5f0a00    _...    MOVS     r10,r0
        0x000034e2:    f04f0600    O...    MOV      r6,#0
        0x000034e6:    4f4e        NO      LDR      r7,[pc,#312] ; [0x3620] = 0x40140000
        0x000034e8:    f8df9138    ..8.    LDR      r9,[pc,#312] ; [0x3624] = 0x3ff00000
        0x000034ec:    46b0        .F      MOV      r8,r6
        0x000034ee:    4650        PF      MOV      r0,r10
        0x000034f0:    d515        ..      BPL      0x351e ; _fp_digits + 110
        0x000034f2:    f1ca0400    ....    RSB      r4,r10,#0
        0x000034f6:    e013        ..      B        0x3520 ; _fp_digits + 112
        0x000034f8:    9811        ..      LDR      r0,[sp,#0x44]
        0x000034fa:    2401        .$      MOVS     r4,#1
        0x000034fc:    a34a        J.      ADR      r3,{pc}+0x12c ; 0x3628
        0x000034fe:    2801        .(      CMP      r0,#1
        0x00003500:    d101        ..      BNE      0x3506 ; _fp_digits + 86
        0x00003502:    ea6f010b    o...    MVN      r1,r11
        0x00003506:    9802        ..      LDR      r0,[sp,#8]
        0x00003508:    9a11        ..      LDR      r2,[sp,#0x44]
        0x0000350a:    e9c03100    ...1    STRD     r3,r1,[r0,#0]
        0x0000350e:    e9c04202    ...B    STRD     r4,r2,[r0,#8]
        0x00003512:    b006        ..      ADD      sp,sp,#0x18
        0x00003514:    e8bd9ff0    ....    POP      {r4-r12,pc}
        0x00003518:    f1cb0000    ....    RSB      r0,r11,#0
        0x0000351c:    e7df        ..      B        0x34de ; _fp_digits + 46
        0x0000351e:    4604        .F      MOV      r4,r0
        0x00003520:    2100        .!      MOVS     r1,#0
        0x00003522:    4a40        @J      LDR      r2,[pc,#256] ; [0x3624] = 0x3ff00000
        0x00003524:    1849        I.      ADDS     r1,r1,r1
        0x00003526:    eb425004    B..P    ADC      r0,r2,r4,LSL #20
        0x0000352a:    e9cd1000    ....    STRD     r1,r0,[sp,#0]
        0x0000352e:    e012        ..      B        0x3556 ; _fp_digits + 166
        0x00003530:    07e0        ..      LSLS     r0,r4,#31
        0x00003532:    d007        ..      BEQ      0x3544 ; _fp_digits + 148
        0x00003534:    4632        2F      MOV      r2,r6
        0x00003536:    463b        ;F      MOV      r3,r7
        0x00003538:    4640        @F      MOV      r0,r8
        0x0000353a:    4649        IF      MOV      r1,r9
        0x0000353c:    f7fcff2e    ....    BL       __aeabi_dmul ; 0x39c
        0x00003540:    4680        .F      MOV      r8,r0
        0x00003542:    4689        .F      MOV      r9,r1
        0x00003544:    4632        2F      MOV      r2,r6
        0x00003546:    463b        ;F      MOV      r3,r7
        0x00003548:    4610        .F      MOV      r0,r2
        0x0000354a:    4619        .F      MOV      r1,r3
        0x0000354c:    f7fcff26    ..&.    BL       __aeabi_dmul ; 0x39c
        0x00003550:    4606        .F      MOV      r6,r0
        0x00003552:    460f        .F      MOV      r7,r1
        0x00003554:    1064        d.      ASRS     r4,r4,#1
        0x00003556:    2c00        .,      CMP      r4,#0
        0x00003558:    d1ea        ..      BNE      0x3530 ; _fp_digits + 128
        0x0000355a:    e9dd0104    ....    LDRD     r0,r1,[sp,#0x10]
        0x0000355e:    e9dd2300    ...#    LDRD     r2,r3,[sp,#0]
        0x00003562:    f1ba0f00    ....    CMP      r10,#0
        0x00003566:    da06        ..      BGE      0x3576 ; _fp_digits + 198
        0x00003568:    f7fcff18    ....    BL       __aeabi_dmul ; 0x39c
        0x0000356c:    4642        BF      MOV      r2,r8
        0x0000356e:    464b        KF      MOV      r3,r9
        0x00003570:    f7fcff14    ....    BL       __aeabi_dmul ; 0x39c
        0x00003574:    e005        ..      B        0x3582 ; _fp_digits + 210
        0x00003576:    f7fcff83    ....    BL       __aeabi_ddiv ; 0x480
        0x0000357a:    4642        BF      MOV      r2,r8
        0x0000357c:    464b        KF      MOV      r3,r9
        0x0000357e:    f7fcff7f    ....    BL       __aeabi_ddiv ; 0x480
        0x00003582:    4604        .F      MOV      r4,r0
        0x00003584:    460e        .F      MOV      r6,r1
        0x00003586:    2200        ."      MOVS     r2,#0
        0x00003588:    4b28        (K      LDR      r3,[pc,#160] ; [0x362c] = 0x43f00000
        0x0000358a:    f7fdf801    ....    BL       __aeabi_cdrcmple ; 0x590
        0x0000358e:    d803        ..      BHI      0x3598 ; _fp_digits + 232
        0x00003590:    f04f30ff    O..0    MOV      r0,#0xffffffff
        0x00003594:    4601        .F      MOV      r1,r0
        0x00003596:    e007        ..      B        0x35a8 ; _fp_digits + 248
        0x00003598:    2200        ."      MOVS     r2,#0
        0x0000359a:    4b25        %K      LDR      r3,[pc,#148] ; [0x3630] = 0x3fe00000
        0x0000359c:    4620         F      MOV      r0,r4
        0x0000359e:    4631        1F      MOV      r1,r6
        0x000035a0:    f7fcfe55    ..U.    BL       __I$use$fp ; 0x24e
        0x000035a4:    f7fcffdb    ....    BL       __aeabi_d2ulz ; 0x55e
        0x000035a8:    2410        .$      MOVS     r4,#0x10
        0x000035aa:    e009        ..      B        0x35c0 ; _fp_digits + 272
        0x000035ac:    2c00        .,      CMP      r4,#0
        0x000035ae:    db0a        ..      BLT      0x35c6 ; _fp_digits + 278
        0x000035b0:    220a        ."      MOVS     r2,#0xa
        0x000035b2:    2300        .#      MOVS     r3,#0
        0x000035b4:    f7fcfe1a    ....    BL       __aeabi_uldivmod ; 0x1ec
        0x000035b8:    9b03        ..      LDR      r3,[sp,#0xc]
        0x000035ba:    3230        02      ADDS     r2,r2,#0x30
        0x000035bc:    551a        .U      STRB     r2,[r3,r4]
        0x000035be:    1e64        d.      SUBS     r4,r4,#1
        0x000035c0:    ea500201    P...    ORRS     r2,r0,r1
        0x000035c4:    d1f2        ..      BNE      0x35ac ; _fp_digits + 252
        0x000035c6:    1c64        d.      ADDS     r4,r4,#1
        0x000035c8:    9a03        ..      LDR      r2,[sp,#0xc]
        0x000035ca:    f1c40311    ....    RSB      r3,r4,#0x11
        0x000035ce:    4414        .D      ADD      r4,r4,r2
        0x000035d0:    9a11        ..      LDR      r2,[sp,#0x44]
        0x000035d2:    2a01        .*      CMP      r2,#1
        0x000035d4:    d003        ..      BEQ      0x35de ; _fp_digits + 302
        0x000035d6:    2201        ."      MOVS     r2,#1
        0x000035d8:    4308        .C      ORRS     r0,r0,r1
        0x000035da:    d10d        ..      BNE      0x35f8 ; _fp_digits + 328
        0x000035dc:    e00a        ..      B        0x35f4 ; _fp_digits + 324
        0x000035de:    4308        .C      ORRS     r0,r0,r1
        0x000035e0:    d004        ..      BEQ      0x35ec ; _fp_digits + 316
        0x000035e2:    2000        .       MOVS     r0,#0
        0x000035e4:    f04f0b11    O...    MOV      r11,#0x11
        0x000035e8:    9011        ..      STR      r0,[sp,#0x44]
        0x000035ea:    e772        r.      B        0x34d2 ; _fp_digits + 34
        0x000035ec:    eba3050b    ....    SUB      r5,r3,r11
        0x000035f0:    1e6d        m.      SUBS     r5,r5,#1
        0x000035f2:    e00d        ..      B        0x3610 ; _fp_digits + 352
        0x000035f4:    455b        [E      CMP      r3,r11
        0x000035f6:    dd04        ..      BLE      0x3602 ; _fp_digits + 338
        0x000035f8:    f04f0200    O...    MOV      r2,#0
        0x000035fc:    f1050501    ....    ADD      r5,r5,#1
        0x00003600:    e004        ..      B        0x360c ; _fp_digits + 348
        0x00003602:    da03        ..      BGE      0x360c ; _fp_digits + 348
        0x00003604:    f04f0200    O...    MOV      r2,#0
        0x00003608:    f1a50501    ....    SUB      r5,r5,#1
        0x0000360c:    2a00        .*      CMP      r2,#0
        0x0000360e:    d0ec        ..      BEQ      0x35ea ; _fp_digits + 314
        0x00003610:    9802        ..      LDR      r0,[sp,#8]
        0x00003612:    9911        ..      LDR      r1,[sp,#0x44]
        0x00003614:    e9c03102    ...1    STRD     r3,r1,[r0,#8]
        0x00003618:    e9c04500    ...E    STRD     r4,r5,[r0,#0]
        0x0000361c:    e779        y.      B        0x3512 ; _fp_digits + 98
    $d
        0x0000361e:    0000        ..      DCW    0
        0x00003620:    40140000    ...@    DCD    1075052544
        0x00003624:    3ff00000    ...?    DCD    1072693248
        0x00003628:    00000030    0...    DCD    48
        0x0000362c:    43f00000    ...C    DCD    1139802112
        0x00003630:    3fe00000    ...?    DCD    1071644672
    $t
    i._printf_core
    _printf_core
        0x00003634:    e92d4fff    -..O    PUSH     {r0-r11,lr}
        0x00003638:    b095        ..      SUB      sp,sp,#0x54
        0x0000363a:    469b        .F      MOV      r11,r3
        0x0000363c:    4689        .F      MOV      r9,r1
        0x0000363e:    4606        .F      MOV      r6,r0
        0x00003640:    2500        .%      MOVS     r5,#0
        0x00003642:    e20f        ..      B        0x3a64 ; _printf_core + 1072
        0x00003644:    2825        %(      CMP      r0,#0x25
        0x00003646:    d177        w.      BNE      0x3738 ; _printf_core + 260
        0x00003648:    2400        .$      MOVS     r4,#0
        0x0000364a:    4627        'F      MOV      r7,r4
        0x0000364c:    4af8        .J      LDR      r2,[pc,#992] ; [0x3a30] = 0x12809
        0x0000364e:    2101        .!      MOVS     r1,#1
        0x00003650:    9405        ..      STR      r4,[sp,#0x14]
        0x00003652:    e000        ..      B        0x3656 ; _printf_core + 34
        0x00003654:    4304        .C      ORRS     r4,r4,r0
        0x00003656:    f8163f01    ...?    LDRB     r3,[r6,#1]!
        0x0000365a:    3b20         ;      SUBS     r3,r3,#0x20
        0x0000365c:    fa01f003    ....    LSL      r0,r1,r3
        0x00003660:    4210        .B      TST      r0,r2
        0x00003662:    d1f7        ..      BNE      0x3654 ; _printf_core + 32
        0x00003664:    7830        0x      LDRB     r0,[r6,#0]
        0x00003666:    282a        *(      CMP      r0,#0x2a
        0x00003668:    d011        ..      BEQ      0x368e ; _printf_core + 90
        0x0000366a:    f06f032f    o./.    MVN      r3,#0x2f
        0x0000366e:    7830        0x      LDRB     r0,[r6,#0]
        0x00003670:    f1a00230    ..0.    SUB      r2,r0,#0x30
        0x00003674:    2a09        .*      CMP      r2,#9
        0x00003676:    d816        ..      BHI      0x36a6 ; _printf_core + 114
        0x00003678:    9a05        ..      LDR      r2,[sp,#0x14]
        0x0000367a:    f0440402    D...    ORR      r4,r4,#2
        0x0000367e:    eb020282    ....    ADD      r2,r2,r2,LSL #2
        0x00003682:    eb030242    ..B.    ADD      r2,r3,r2,LSL #1
        0x00003686:    4410        .D      ADD      r0,r0,r2
        0x00003688:    1c76        v.      ADDS     r6,r6,#1
        0x0000368a:    9005        ..      STR      r0,[sp,#0x14]
        0x0000368c:    e7ef        ..      B        0x366e ; _printf_core + 58
        0x0000368e:    f8592b04    Y..+    LDR      r2,[r9],#4
        0x00003692:    9205        ..      STR      r2,[sp,#0x14]
        0x00003694:    2a00        .*      CMP      r2,#0
        0x00003696:    da03        ..      BGE      0x36a0 ; _printf_core + 108
        0x00003698:    4250        PB      RSBS     r0,r2,#0
        0x0000369a:    f4445400    D..T    ORR      r4,r4,#0x2000
        0x0000369e:    9005        ..      STR      r0,[sp,#0x14]
        0x000036a0:    f0440402    D...    ORR      r4,r4,#2
        0x000036a4:    1c76        v.      ADDS     r6,r6,#1
        0x000036a6:    7830        0x      LDRB     r0,[r6,#0]
        0x000036a8:    282e        .(      CMP      r0,#0x2e
        0x000036aa:    d116        ..      BNE      0x36da ; _printf_core + 166
        0x000036ac:    f8160f01    ....    LDRB     r0,[r6,#1]!
        0x000036b0:    f0440404    D...    ORR      r4,r4,#4
        0x000036b4:    282a        *(      CMP      r0,#0x2a
        0x000036b6:    d00d        ..      BEQ      0x36d4 ; _printf_core + 160
        0x000036b8:    f06f022f    o./.    MVN      r2,#0x2f
        0x000036bc:    7830        0x      LDRB     r0,[r6,#0]
        0x000036be:    f1a00330    ..0.    SUB      r3,r0,#0x30
        0x000036c2:    2b09        .+      CMP      r3,#9
        0x000036c4:    d809        ..      BHI      0x36da ; _printf_core + 166
        0x000036c6:    eb070387    ....    ADD      r3,r7,r7,LSL #2
        0x000036ca:    eb020343    ..C.    ADD      r3,r2,r3,LSL #1
        0x000036ce:    18c7        ..      ADDS     r7,r0,r3
        0x000036d0:    1c76        v.      ADDS     r6,r6,#1
        0x000036d2:    e7f3        ..      B        0x36bc ; _printf_core + 136
        0x000036d4:    f8597b04    Y..{    LDR      r7,[r9],#4
        0x000036d8:    1c76        v.      ADDS     r6,r6,#1
        0x000036da:    7830        0x      LDRB     r0,[r6,#0]
        0x000036dc:    286c        l(      CMP      r0,#0x6c
        0x000036de:    d00f        ..      BEQ      0x3700 ; _printf_core + 204
        0x000036e0:    dc06        ..      BGT      0x36f0 ; _printf_core + 188
        0x000036e2:    284c        L(      CMP      r0,#0x4c
        0x000036e4:    d017        ..      BEQ      0x3716 ; _printf_core + 226
        0x000036e6:    2868        h(      CMP      r0,#0x68
        0x000036e8:    d00d        ..      BEQ      0x3706 ; _printf_core + 210
        0x000036ea:    286a        j(      CMP      r0,#0x6a
        0x000036ec:    d114        ..      BNE      0x3718 ; _printf_core + 228
        0x000036ee:    e004        ..      B        0x36fa ; _printf_core + 198
        0x000036f0:    2874        t(      CMP      r0,#0x74
        0x000036f2:    d010        ..      BEQ      0x3716 ; _printf_core + 226
        0x000036f4:    287a        z(      CMP      r0,#0x7a
        0x000036f6:    d10f        ..      BNE      0x3718 ; _printf_core + 228
        0x000036f8:    e00d        ..      B        0x3716 ; _printf_core + 226
        0x000036fa:    f4441400    D...    ORR      r4,r4,#0x200000
        0x000036fe:    e00a        ..      B        0x3716 ; _printf_core + 226
        0x00003700:    f4441480    D...    ORR      r4,r4,#0x100000
        0x00003704:    e001        ..      B        0x370a ; _printf_core + 214
        0x00003706:    f4441440    D.@.    ORR      r4,r4,#0x300000
        0x0000370a:    7872        rx      LDRB     r2,[r6,#1]
        0x0000370c:    4282        .B      CMP      r2,r0
        0x0000370e:    d102        ..      BNE      0x3716 ; _printf_core + 226
        0x00003710:    f5041480    ....    ADD      r4,r4,#0x100000
        0x00003714:    1c76        v.      ADDS     r6,r6,#1
        0x00003716:    1c76        v.      ADDS     r6,r6,#1
        0x00003718:    7830        0x      LDRB     r0,[r6,#0]
        0x0000371a:    2866        f(      CMP      r0,#0x66
        0x0000371c:    d00b        ..      BEQ      0x3736 ; _printf_core + 258
        0x0000371e:    dc13        ..      BGT      0x3748 ; _printf_core + 276
        0x00003720:    2858        X(      CMP      r0,#0x58
        0x00003722:    d077        w.      BEQ      0x3814 ; _printf_core + 480
        0x00003724:    dc09        ..      BGT      0x373a ; _printf_core + 262
        0x00003726:    2800        .(      CMP      r0,#0
        0x00003728:    d075        u.      BEQ      0x3816 ; _printf_core + 482
        0x0000372a:    2845        E(      CMP      r0,#0x45
        0x0000372c:    d0f6        ..      BEQ      0x371c ; _printf_core + 232
        0x0000372e:    2846        F(      CMP      r0,#0x46
        0x00003730:    d0f4        ..      BEQ      0x371c ; _printf_core + 232
        0x00003732:    2847        G(      CMP      r0,#0x47
        0x00003734:    d11a        ..      BNE      0x376c ; _printf_core + 312
        0x00003736:    e19d        ..      B        0x3a74 ; _printf_core + 1088
        0x00003738:    e018        ..      B        0x376c ; _printf_core + 312
        0x0000373a:    2863        c(      CMP      r0,#0x63
        0x0000373c:    d035        5.      BEQ      0x37aa ; _printf_core + 374
        0x0000373e:    2864        d(      CMP      r0,#0x64
        0x00003740:    d079        y.      BEQ      0x3836 ; _printf_core + 514
        0x00003742:    2865        e(      CMP      r0,#0x65
        0x00003744:    d112        ..      BNE      0x376c ; _printf_core + 312
        0x00003746:    e195        ..      B        0x3a74 ; _printf_core + 1088
        0x00003748:    2870        p(      CMP      r0,#0x70
        0x0000374a:    d073        s.      BEQ      0x3834 ; _printf_core + 512
        0x0000374c:    dc08        ..      BGT      0x3760 ; _printf_core + 300
        0x0000374e:    2867        g(      CMP      r0,#0x67
        0x00003750:    d0f1        ..      BEQ      0x3736 ; _printf_core + 258
        0x00003752:    2869        i(      CMP      r0,#0x69
        0x00003754:    d06f        o.      BEQ      0x3836 ; _printf_core + 514
        0x00003756:    286e        n(      CMP      r0,#0x6e
        0x00003758:    d00d        ..      BEQ      0x3776 ; _printf_core + 322
        0x0000375a:    286f        o(      CMP      r0,#0x6f
        0x0000375c:    d106        ..      BNE      0x376c ; _printf_core + 312
        0x0000375e:    e0b5        ..      B        0x38cc ; _printf_core + 664
        0x00003760:    2873        s(      CMP      r0,#0x73
        0x00003762:    d02c        ,.      BEQ      0x37be ; _printf_core + 394
        0x00003764:    2875        u(      CMP      r0,#0x75
        0x00003766:    d075        u.      BEQ      0x3854 ; _printf_core + 544
        0x00003768:    2878        x(      CMP      r0,#0x78
        0x0000376a:    d074        t.      BEQ      0x3856 ; _printf_core + 546
        0x0000376c:    465a        ZF      MOV      r2,r11
        0x0000376e:    9917        ..      LDR      r1,[sp,#0x5c]
        0x00003770:    4790        .G      BLX      r2
        0x00003772:    1c6d        m.      ADDS     r5,r5,#1
        0x00003774:    e175        u.      B        0x3a62 ; _printf_core + 1070
        0x00003776:    f3c45002    ...P    UBFX     r0,r4,#20,#3
        0x0000377a:    2802        .(      CMP      r0,#2
        0x0000377c:    d009        ..      BEQ      0x3792 ; _printf_core + 350
        0x0000377e:    2803        .(      CMP      r0,#3
        0x00003780:    d00d        ..      BEQ      0x379e ; _printf_core + 362
        0x00003782:    f8d91000    ....    LDR      r1,[r9,#0]
        0x00003786:    2804        .(      CMP      r0,#4
        0x00003788:    d00d        ..      BEQ      0x37a6 ; _printf_core + 370
        0x0000378a:    600d        .`      STR      r5,[r1,#0]
        0x0000378c:    f1090904    ....    ADD      r9,r9,#4
        0x00003790:    e167        g.      B        0x3a62 ; _printf_core + 1070
        0x00003792:    f8d91000    ....    LDR      r1,[r9,#0]
        0x00003796:    17ea        ..      ASRS     r2,r5,#31
        0x00003798:    e9c15200    ...R    STRD     r5,r2,[r1,#0]
        0x0000379c:    e7f6        ..      B        0x378c ; _printf_core + 344
        0x0000379e:    f8d91000    ....    LDR      r1,[r9,#0]
        0x000037a2:    800d        ..      STRH     r5,[r1,#0]
        0x000037a4:    e7f2        ..      B        0x378c ; _printf_core + 344
        0x000037a6:    700d        .p      STRB     r5,[r1,#0]
        0x000037a8:    e7f0        ..      B        0x378c ; _printf_core + 344
        0x000037aa:    f8191b04    ....    LDRB     r1,[r9],#4
        0x000037ae:    f88d1000    ....    STRB     r1,[sp,#0]
        0x000037b2:    2000        .       MOVS     r0,#0
        0x000037b4:    f88d0001    ....    STRB     r0,[sp,#1]
        0x000037b8:    46ea        .F      MOV      r10,sp
        0x000037ba:    2001        .       MOVS     r0,#1
        0x000037bc:    e003        ..      B        0x37c6 ; _printf_core + 402
        0x000037be:    f859ab04    Y...    LDR      r10,[r9],#4
        0x000037c2:    f04f30ff    O..0    MOV      r0,#0xffffffff
        0x000037c6:    0761        a.      LSLS     r1,r4,#29
        0x000037c8:    f04f0100    O...    MOV      r1,#0
        0x000037cc:    d402        ..      BMI      0x37d4 ; _printf_core + 416
        0x000037ce:    e00d        ..      B        0x37ec ; _printf_core + 440
        0x000037d0:    f1080101    ....    ADD      r1,r8,#1
        0x000037d4:    4688        .F      MOV      r8,r1
        0x000037d6:    42b9        .B      CMP      r1,r7
        0x000037d8:    da0f        ..      BGE      0x37fa ; _printf_core + 454
        0x000037da:    4580        .E      CMP      r8,r0
        0x000037dc:    dbf8        ..      BLT      0x37d0 ; _printf_core + 412
        0x000037de:    f81a1008    ....    LDRB     r1,[r10,r8]
        0x000037e2:    2900        .)      CMP      r1,#0
        0x000037e4:    d1f4        ..      BNE      0x37d0 ; _printf_core + 412
        0x000037e6:    e008        ..      B        0x37fa ; _printf_core + 454
        0x000037e8:    f1080101    ....    ADD      r1,r8,#1
        0x000037ec:    4688        .F      MOV      r8,r1
        0x000037ee:    4281        .B      CMP      r1,r0
        0x000037f0:    dbfa        ..      BLT      0x37e8 ; _printf_core + 436
        0x000037f2:    f81a1008    ....    LDRB     r1,[r10,r8]
        0x000037f6:    2900        .)      CMP      r1,#0
        0x000037f8:    d1f6        ..      BNE      0x37e8 ; _printf_core + 436
        0x000037fa:    9805        ..      LDR      r0,[sp,#0x14]
        0x000037fc:    465b        [F      MOV      r3,r11
        0x000037fe:    eba00708    ....    SUB      r7,r0,r8
        0x00003802:    4621        !F      MOV      r1,r4
        0x00003804:    4638        8F      MOV      r0,r7
        0x00003806:    9a17        ..      LDR      r2,[sp,#0x5c]
        0x00003808:    f000fa94    ....    BL       _printf_pre_padding ; 0x3d34
        0x0000380c:    4428        (D      ADD      r0,r0,r5
        0x0000380e:    eb000508    ....    ADD      r5,r0,r8
        0x00003812:    e007        ..      B        0x3824 ; _printf_core + 496
        0x00003814:    e04d        M.      B        0x38b2 ; _printf_core + 638
        0x00003816:    e129        ).      B        0x3a6c ; _printf_core + 1080
        0x00003818:    e00d        ..      B        0x3836 ; _printf_core + 514
        0x0000381a:    f81a0b01    ....    LDRB     r0,[r10],#1
        0x0000381e:    465a        ZF      MOV      r2,r11
        0x00003820:    9917        ..      LDR      r1,[sp,#0x5c]
        0x00003822:    4790        .G      BLX      r2
        0x00003824:    f1b80801    ....    SUBS     r8,r8,#1
        0x00003828:    d2f7        ..      BCS      0x381a ; _printf_core + 486
        0x0000382a:    465b        [F      MOV      r3,r11
        0x0000382c:    4621        !F      MOV      r1,r4
        0x0000382e:    4638        8F      MOV      r0,r7
        0x00003830:    9a17        ..      LDR      r2,[sp,#0x5c]
        0x00003832:    e113        ..      B        0x3a5c ; _printf_core + 1064
        0x00003834:    e042        B.      B        0x38bc ; _printf_core + 648
        0x00003836:    220a        ."      MOVS     r2,#0xa
        0x00003838:    9200        ..      STR      r2,[sp,#0]
        0x0000383a:    f3c45202    ...R    UBFX     r2,r4,#20,#3
        0x0000383e:    f04f0a00    O...    MOV      r10,#0
        0x00003842:    2a02        .*      CMP      r2,#2
        0x00003844:    d008        ..      BEQ      0x3858 ; _printf_core + 548
        0x00003846:    f859cb04    Y...    LDR      r12,[r9],#4
        0x0000384a:    2a03        .*      CMP      r2,#3
        0x0000384c:    ea4f71ec    O..q    ASR      r1,r12,#31
        0x00003850:    d00a        ..      BEQ      0x3868 ; _printf_core + 564
        0x00003852:    e00d        ..      B        0x3870 ; _printf_core + 572
        0x00003854:    e029        ).      B        0x38aa ; _printf_core + 630
        0x00003856:    e02a        *.      B        0x38ae ; _printf_core + 634
        0x00003858:    f1090107    ....    ADD      r1,r9,#7
        0x0000385c:    f0210207    !...    BIC      r2,r1,#7
        0x00003860:    e8f2c102    ....    LDRD     r12,r1,[r2],#8
        0x00003864:    4691        .F      MOV      r9,r2
        0x00003866:    e009        ..      B        0x387c ; _printf_core + 584
        0x00003868:    fa0ffc8c    ....    SXTH     r12,r12
        0x0000386c:    ea4f71ec    O..q    ASR      r1,r12,#31
        0x00003870:    2a04        .*      CMP      r2,#4
        0x00003872:    d103        ..      BNE      0x387c ; _printf_core + 584
        0x00003874:    fa4ffc8c    O...    SXTB     r12,r12
        0x00003878:    ea4f71ec    O..q    ASR      r1,r12,#31
        0x0000387c:    2900        .)      CMP      r1,#0
        0x0000387e:    da07        ..      BGE      0x3890 ; _printf_core + 604
        0x00003880:    460a        .F      MOV      r2,r1
        0x00003882:    2100        .!      MOVS     r1,#0
        0x00003884:    f1dc0c00    ....    RSBS     r12,r12,#0
        0x00003888:    eb610102    a...    SBC      r1,r1,r2
        0x0000388c:    222d        -"      MOVS     r2,#0x2d
        0x0000388e:    e002        ..      B        0x3896 ; _printf_core + 610
        0x00003890:    0522        ".      LSLS     r2,r4,#20
        0x00003892:    d504        ..      BPL      0x389e ; _printf_core + 618
        0x00003894:    222b        +"      MOVS     r2,#0x2b
        0x00003896:    f88d2004    ...     STRB     r2,[sp,#4]
        0x0000389a:    2201        ."      MOVS     r2,#1
        0x0000389c:    e003        ..      B        0x38a6 ; _printf_core + 626
        0x0000389e:    07e2        ..      LSLS     r2,r4,#31
        0x000038a0:    d001        ..      BEQ      0x38a6 ; _printf_core + 626
        0x000038a2:    2220         "      MOVS     r2,#0x20
        0x000038a4:    e7f7        ..      B        0x3896 ; _printf_core + 610
        0x000038a6:    4690        .F      MOV      r8,r2
        0x000038a8:    e059        Y.      B        0x395e ; _printf_core + 810
        0x000038aa:    210a        .!      MOVS     r1,#0xa
        0x000038ac:    e002        ..      B        0x38b4 ; _printf_core + 640
        0x000038ae:    2210        ."      MOVS     r2,#0x10
        0x000038b0:    e00d        ..      B        0x38ce ; _printf_core + 666
        0x000038b2:    2110        .!      MOVS     r1,#0x10
        0x000038b4:    f04f0a00    O...    MOV      r10,#0
        0x000038b8:    9100        ..      STR      r1,[sp,#0]
        0x000038ba:    e00b        ..      B        0x38d4 ; _printf_core + 672
        0x000038bc:    2210        ."      MOVS     r2,#0x10
        0x000038be:    f04f0a00    O...    MOV      r10,#0
        0x000038c2:    f0440404    D...    ORR      r4,r4,#4
        0x000038c6:    2708        .'      MOVS     r7,#8
        0x000038c8:    9200        ..      STR      r2,[sp,#0]
        0x000038ca:    e003        ..      B        0x38d4 ; _printf_core + 672
        0x000038cc:    2208        ."      MOVS     r2,#8
        0x000038ce:    f04f0a00    O...    MOV      r10,#0
        0x000038d2:    9200        ..      STR      r2,[sp,#0]
        0x000038d4:    f3c45202    ...R    UBFX     r2,r4,#20,#3
        0x000038d8:    2a02        .*      CMP      r2,#2
        0x000038da:    d005        ..      BEQ      0x38e8 ; _printf_core + 692
        0x000038dc:    f859cb04    Y...    LDR      r12,[r9],#4
        0x000038e0:    2100        .!      MOVS     r1,#0
        0x000038e2:    2a03        .*      CMP      r2,#3
        0x000038e4:    d008        ..      BEQ      0x38f8 ; _printf_core + 708
        0x000038e6:    e009        ..      B        0x38fc ; _printf_core + 712
        0x000038e8:    f1090107    ....    ADD      r1,r9,#7
        0x000038ec:    f0210207    !...    BIC      r2,r1,#7
        0x000038f0:    e8f2c102    ....    LDRD     r12,r1,[r2],#8
        0x000038f4:    4691        .F      MOV      r9,r2
        0x000038f6:    e005        ..      B        0x3904 ; _printf_core + 720
        0x000038f8:    fa1ffc8c    ....    UXTH     r12,r12
        0x000038fc:    2a04        .*      CMP      r2,#4
        0x000038fe:    d101        ..      BNE      0x3904 ; _printf_core + 720
        0x00003900:    f00c0cff    ....    AND      r12,r12,#0xff
        0x00003904:    f04f0800    O...    MOV      r8,#0
        0x00003908:    0722        ".      LSLS     r2,r4,#28
        0x0000390a:    d528        (.      BPL      0x395e ; _printf_core + 810
        0x0000390c:    2870        p(      CMP      r0,#0x70
        0x0000390e:    d006        ..      BEQ      0x391e ; _printf_core + 746
        0x00003910:    9b00        ..      LDR      r3,[sp,#0]
        0x00003912:    f0830310    ....    EOR      r3,r3,#0x10
        0x00003916:    ea53030a    S...    ORRS     r3,r3,r10
        0x0000391a:    d005        ..      BEQ      0x3928 ; _printf_core + 756
        0x0000391c:    e00e        ..      B        0x393c ; _printf_core + 776
        0x0000391e:    2240        @"      MOVS     r2,#0x40
        0x00003920:    f88d2004    ...     STRB     r2,[sp,#4]
        0x00003924:    2201        ."      MOVS     r2,#1
        0x00003926:    e008        ..      B        0x393a ; _printf_core + 774
        0x00003928:    ea5c0201    \...    ORRS     r2,r12,r1
        0x0000392c:    d006        ..      BEQ      0x393c ; _printf_core + 776
        0x0000392e:    2230        0"      MOVS     r2,#0x30
        0x00003930:    f88d2004    ...     STRB     r2,[sp,#4]
        0x00003934:    f88d0005    ....    STRB     r0,[sp,#5]
        0x00003938:    2202        ."      MOVS     r2,#2
        0x0000393a:    4690        .F      MOV      r8,r2
        0x0000393c:    9b00        ..      LDR      r3,[sp,#0]
        0x0000393e:    f0830308    ....    EOR      r3,r3,#8
        0x00003942:    ea53030a    S...    ORRS     r3,r3,r10
        0x00003946:    d10a        ..      BNE      0x395e ; _printf_core + 810
        0x00003948:    ea5c0201    \...    ORRS     r2,r12,r1
        0x0000394c:    d101        ..      BNE      0x3952 ; _printf_core + 798
        0x0000394e:    0762        b.      LSLS     r2,r4,#29
        0x00003950:    d505        ..      BPL      0x395e ; _printf_core + 810
        0x00003952:    2230        0"      MOVS     r2,#0x30
        0x00003954:    f88d2004    ...     STRB     r2,[sp,#4]
        0x00003958:    f04f0801    O...    MOV      r8,#1
        0x0000395c:    1e7f        ..      SUBS     r7,r7,#1
        0x0000395e:    2858        X(      CMP      r0,#0x58
        0x00003960:    d004        ..      BEQ      0x396c ; _printf_core + 824
        0x00003962:    a034        4.      ADR      r0,{pc}+0xd2 ; 0x3a34
        0x00003964:    9003        ..      STR      r0,[sp,#0xc]
        0x00003966:    a80e        ..      ADD      r0,sp,#0x38
        0x00003968:    9002        ..      STR      r0,[sp,#8]
        0x0000396a:    e00d        ..      B        0x3988 ; _printf_core + 852
        0x0000396c:    a036        6.      ADR      r0,{pc}+0xdc ; 0x3a48
        0x0000396e:    e7f9        ..      B        0x3964 ; _printf_core + 816
        0x00003970:    4653        SF      MOV      r3,r10
        0x00003972:    4660        `F      MOV      r0,r12
        0x00003974:    9a00        ..      LDR      r2,[sp,#0]
        0x00003976:    f7fcfc39    ..9.    BL       __aeabi_uldivmod ; 0x1ec
        0x0000397a:    4684        .F      MOV      r12,r0
        0x0000397c:    9803        ..      LDR      r0,[sp,#0xc]
        0x0000397e:    5c82        .\      LDRB     r2,[r0,r2]
        0x00003980:    9802        ..      LDR      r0,[sp,#8]
        0x00003982:    1e40        @.      SUBS     r0,r0,#1
        0x00003984:    9002        ..      STR      r0,[sp,#8]
        0x00003986:    7002        .p      STRB     r2,[r0,#0]
        0x00003988:    ea5c0001    \...    ORRS     r0,r12,r1
        0x0000398c:    d1f0        ..      BNE      0x3970 ; _printf_core + 828
        0x0000398e:    9802        ..      LDR      r0,[sp,#8]
        0x00003990:    a906        ..      ADD      r1,sp,#0x18
        0x00003992:    1a08        ..      SUBS     r0,r1,r0
        0x00003994:    f1000a20    .. .    ADD      r10,r0,#0x20
        0x00003998:    0760        `.      LSLS     r0,r4,#29
        0x0000399a:    d502        ..      BPL      0x39a2 ; _printf_core + 878
        0x0000399c:    f4243480    $..4    BIC      r4,r4,#0x10000
        0x000039a0:    e000        ..      B        0x39a4 ; _printf_core + 880
        0x000039a2:    2701        .'      MOVS     r7,#1
        0x000039a4:    4557        WE      CMP      r7,r10
        0x000039a6:    dd02        ..      BLE      0x39ae ; _printf_core + 890
        0x000039a8:    eba7000a    ....    SUB      r0,r7,r10
        0x000039ac:    e000        ..      B        0x39b0 ; _printf_core + 892
        0x000039ae:    2000        .       MOVS     r0,#0
        0x000039b0:    eb00010a    ....    ADD      r1,r0,r10
        0x000039b4:    9000        ..      STR      r0,[sp,#0]
        0x000039b6:    9805        ..      LDR      r0,[sp,#0x14]
        0x000039b8:    4441        AD      ADD      r1,r1,r8
        0x000039ba:    1a40        @.      SUBS     r0,r0,r1
        0x000039bc:    9005        ..      STR      r0,[sp,#0x14]
        0x000039be:    03e0        ..      LSLS     r0,r4,#15
        0x000039c0:    d406        ..      BMI      0x39d0 ; _printf_core + 924
        0x000039c2:    465b        [F      MOV      r3,r11
        0x000039c4:    4621        !F      MOV      r1,r4
        0x000039c6:    9a17        ..      LDR      r2,[sp,#0x5c]
        0x000039c8:    9805        ..      LDR      r0,[sp,#0x14]
        0x000039ca:    f000f9b3    ....    BL       _printf_pre_padding ; 0x3d34
        0x000039ce:    4405        .D      ADD      r5,r5,r0
        0x000039d0:    2700        .'      MOVS     r7,#0
        0x000039d2:    e006        ..      B        0x39e2 ; _printf_core + 942
        0x000039d4:    a801        ..      ADD      r0,sp,#4
        0x000039d6:    465a        ZF      MOV      r2,r11
        0x000039d8:    5dc0        .]      LDRB     r0,[r0,r7]
        0x000039da:    9917        ..      LDR      r1,[sp,#0x5c]
        0x000039dc:    4790        .G      BLX      r2
        0x000039de:    1c6d        m.      ADDS     r5,r5,#1
        0x000039e0:    1c7f        ..      ADDS     r7,r7,#1
        0x000039e2:    4547        GE      CMP      r7,r8
        0x000039e4:    dbf6        ..      BLT      0x39d4 ; _printf_core + 928
        0x000039e6:    03e0        ..      LSLS     r0,r4,#15
        0x000039e8:    d50c        ..      BPL      0x3a04 ; _printf_core + 976
        0x000039ea:    465b        [F      MOV      r3,r11
        0x000039ec:    4621        !F      MOV      r1,r4
        0x000039ee:    9a17        ..      LDR      r2,[sp,#0x5c]
        0x000039f0:    9805        ..      LDR      r0,[sp,#0x14]
        0x000039f2:    f000f99f    ....    BL       _printf_pre_padding ; 0x3d34
        0x000039f6:    4405        .D      ADD      r5,r5,r0
        0x000039f8:    e004        ..      B        0x3a04 ; _printf_core + 976
        0x000039fa:    2030        0       MOVS     r0,#0x30
        0x000039fc:    465a        ZF      MOV      r2,r11
        0x000039fe:    9917        ..      LDR      r1,[sp,#0x5c]
        0x00003a00:    4790        .G      BLX      r2
        0x00003a02:    1c6d        m.      ADDS     r5,r5,#1
        0x00003a04:    9900        ..      LDR      r1,[sp,#0]
        0x00003a06:    1e48        H.      SUBS     r0,r1,#1
        0x00003a08:    9000        ..      STR      r0,[sp,#0]
        0x00003a0a:    2900        .)      CMP      r1,#0
        0x00003a0c:    dcf5        ..      BGT      0x39fa ; _printf_core + 966
        0x00003a0e:    e008        ..      B        0x3a22 ; _printf_core + 1006
        0x00003a10:    9802        ..      LDR      r0,[sp,#8]
        0x00003a12:    9902        ..      LDR      r1,[sp,#8]
        0x00003a14:    465a        ZF      MOV      r2,r11
        0x00003a16:    7800        .x      LDRB     r0,[r0,#0]
        0x00003a18:    1c49        I.      ADDS     r1,r1,#1
        0x00003a1a:    9102        ..      STR      r1,[sp,#8]
        0x00003a1c:    9917        ..      LDR      r1,[sp,#0x5c]
        0x00003a1e:    4790        .G      BLX      r2
        0x00003a20:    1c6d        m.      ADDS     r5,r5,#1
        0x00003a22:    f1ba0100    ....    SUBS     r1,r10,#0
        0x00003a26:    f1aa0a01    ....    SUB      r10,r10,#1
        0x00003a2a:    dcf1        ..      BGT      0x3a10 ; _printf_core + 988
        0x00003a2c:    e165        e.      B        0x3cfa ; _printf_core + 1734
    $d
        0x00003a2e:    0000        ..      DCW    0
        0x00003a30:    00012809    .(..    DCD    75785
        0x00003a34:    33323130    0123    DCD    858927408
        0x00003a38:    37363534    4567    DCD    926299444
        0x00003a3c:    62613938    89ab    DCD    1650538808
        0x00003a40:    66656463    cdef    DCD    1717920867
        0x00003a44:    00000000    ....    DCD    0
        0x00003a48:    33323130    0123    DCD    858927408
        0x00003a4c:    37363534    4567    DCD    926299444
        0x00003a50:    42413938    89AB    DCD    1111570744
        0x00003a54:    46454443    CDEF    DCD    1178944579
        0x00003a58:    00000000    ....    DCD    0
    $t
        0x00003a5c:    f000f958    ..X.    BL       _printf_post_padding ; 0x3d10
        0x00003a60:    4405        .D      ADD      r5,r5,r0
        0x00003a62:    1c76        v.      ADDS     r6,r6,#1
        0x00003a64:    7830        0x      LDRB     r0,[r6,#0]
        0x00003a66:    2800        .(      CMP      r0,#0
        0x00003a68:    f47fadec    ....    BNE      0x3644 ; _printf_core + 16
        0x00003a6c:    b019        ..      ADD      sp,sp,#0x64
        0x00003a6e:    4628        (F      MOV      r0,r5
        0x00003a70:    e8bd8ff0    ....    POP      {r4-r11,pc}
        0x00003a74:    0762        b.      LSLS     r2,r4,#29
        0x00003a76:    d400        ..      BMI      0x3a7a ; _printf_core + 1094
        0x00003a78:    2706        .'      MOVS     r7,#6
        0x00003a7a:    f1090207    ....    ADD      r2,r9,#7
        0x00003a7e:    f0220c07    "...    BIC      r12,r2,#7
        0x00003a82:    e8fc2302    ...#    LDRD     r2,r3,[r12],#8
        0x00003a86:    46e1        .F      MOV      r9,r12
        0x00003a88:    f0034800    ...H    AND      r8,r3,#0x80000000
        0x00003a8c:    ea5f0c08    _...    MOVS     r12,r8
        0x00003a90:    d002        ..      BEQ      0x3a98 ; _printf_core + 1124
        0x00003a92:    f20f2c70    ..p,    ADR.W    r12,{pc}+0x272 ; 0x3d04
        0x00003a96:    e00d        ..      B        0x3ab4 ; _printf_core + 1152
        0x00003a98:    ea5f5c04    _..\    LSLS     r12,r4,#20
        0x00003a9c:    d502        ..      BPL      0x3aa4 ; _printf_core + 1136
        0x00003a9e:    f20f2c68    ..h,    ADR.W    r12,{pc}+0x26a ; 0x3d08
        0x00003aa2:    e007        ..      B        0x3ab4 ; _printf_core + 1152
        0x00003aa4:    ea5f7cc4    _..|    LSLS     r12,r4,#31
        0x00003aa8:    d002        ..      BEQ      0x3ab0 ; _printf_core + 1148
        0x00003aaa:    f20f2c60    ..`,    ADR.W    r12,{pc}+0x262 ; 0x3d0c
        0x00003aae:    e001        ..      B        0x3ab4 ; _printf_core + 1152
        0x00003ab0:    f2af0c70    ..p.    ADR      r12,{pc}-0x6c ; 0x3a44
        0x00003ab4:    f04f38ff    O..8    MOV      r8,#0xffffffff
        0x00003ab8:    f0234300    #..C    BIC      r3,r3,#0x80000000
        0x00003abc:    f8cdc050    ..P.    STR      r12,[sp,#0x50]
        0x00003ac0:    2865        e(      CMP      r0,#0x65
        0x00003ac2:    d00c        ..      BEQ      0x3ade ; _printf_core + 1194
        0x00003ac4:    dc06        ..      BGT      0x3ad4 ; _printf_core + 1184
        0x00003ac6:    2845        E(      CMP      r0,#0x45
        0x00003ac8:    d009        ..      BEQ      0x3ade ; _printf_core + 1194
        0x00003aca:    2846        F(      CMP      r0,#0x46
        0x00003acc:    d01d        ..      BEQ      0x3b0a ; _printf_core + 1238
        0x00003ace:    2847        G(      CMP      r0,#0x47
        0x00003ad0:    d13d        =.      BNE      0x3b4e ; _printf_core + 1306
        0x00003ad2:    e03d        =.      B        0x3b50 ; _printf_core + 1308
        0x00003ad4:    2866        f(      CMP      r0,#0x66
        0x00003ad6:    d018        ..      BEQ      0x3b0a ; _printf_core + 1238
        0x00003ad8:    2867        g(      CMP      r0,#0x67
        0x00003ada:    d17e        ~.      BNE      0x3bda ; _printf_core + 1446
        0x00003adc:    e038        8.      B        0x3b50 ; _printf_core + 1308
        0x00003ade:    2100        .!      MOVS     r1,#0
        0x00003ae0:    2f11        ./      CMP      r7,#0x11
        0x00003ae2:    db01        ..      BLT      0x3ae8 ; _printf_core + 1204
        0x00003ae4:    2011        .       MOVS     r0,#0x11
        0x00003ae6:    e000        ..      B        0x3aea ; _printf_core + 1206
        0x00003ae8:    1c78        x.      ADDS     r0,r7,#1
        0x00003aea:    e9cd0100    ....    STRD     r0,r1,[sp,#0]
        0x00003aee:    a906        ..      ADD      r1,sp,#0x18
        0x00003af0:    a80e        ..      ADD      r0,sp,#0x38
        0x00003af2:    f7fffcdd    ....    BL       _fp_digits ; 0x34b0
        0x00003af6:    e9dd010f    ....    LDRD     r0,r1,[sp,#0x3c]
        0x00003afa:    9a0e        ..      LDR      r2,[sp,#0x38]
        0x00003afc:    9103        ..      STR      r1,[sp,#0xc]
        0x00003afe:    2100        .!      MOVS     r1,#0
        0x00003b00:    9200        ..      STR      r2,[sp,#0]
        0x00003b02:    f1070a01    ....    ADD      r10,r7,#1
        0x00003b06:    9104        ..      STR      r1,[sp,#0x10]
        0x00003b08:    e04d        M.      B        0x3ba6 ; _printf_core + 1394
        0x00003b0a:    f04f4000    O..@    MOV      r0,#0x80000000
        0x00003b0e:    9700        ..      STR      r7,[sp,#0]
        0x00003b10:    e9cd1001    ....    STRD     r1,r0,[sp,#4]
        0x00003b14:    a906        ..      ADD      r1,sp,#0x18
        0x00003b16:    a80e        ..      ADD      r0,sp,#0x38
        0x00003b18:    f7fffcca    ....    BL       _fp_digits ; 0x34b0
        0x00003b1c:    e9dd020f    ....    LDRD     r0,r2,[sp,#0x3c]
        0x00003b20:    9203        ..      STR      r2,[sp,#0xc]
        0x00003b22:    9b0e        ..      LDR      r3,[sp,#0x38]
        0x00003b24:    9911        ..      LDR      r1,[sp,#0x44]
        0x00003b26:    2200        ."      MOVS     r2,#0
        0x00003b28:    f8dda00c    ....    LDR      r10,[sp,#0xc]
        0x00003b2c:    9300        ..      STR      r3,[sp,#0]
        0x00003b2e:    9204        ..      STR      r2,[sp,#0x10]
        0x00003b30:    b911        ..      CBNZ     r1,0x3b38 ; _printf_core + 1284
        0x00003b32:    1c79        y.      ADDS     r1,r7,#1
        0x00003b34:    eb000a01    ....    ADD      r10,r0,r1
        0x00003b38:    ebb7000a    ....    SUBS     r0,r7,r10
        0x00003b3c:    d404        ..      BMI      0x3b48 ; _printf_core + 1300
        0x00003b3e:    f1c030ff    ...0    RSB      r0,r0,#0xffffffff
        0x00003b42:    f1070a01    ....    ADD      r10,r7,#1
        0x00003b46:    9004        ..      STR      r0,[sp,#0x10]
        0x00003b48:    ebaa0007    ....    SUB      r0,r10,r7
        0x00003b4c:    9001        ..      STR      r0,[sp,#4]
        0x00003b4e:    e044        D.      B        0x3bda ; _printf_core + 1446
        0x00003b50:    2f01        ./      CMP      r7,#1
        0x00003b52:    da00        ..      BGE      0x3b56 ; _printf_core + 1314
        0x00003b54:    2701        .'      MOVS     r7,#1
        0x00003b56:    2100        .!      MOVS     r1,#0
        0x00003b58:    2f11        ./      CMP      r7,#0x11
        0x00003b5a:    dd01        ..      BLE      0x3b60 ; _printf_core + 1324
        0x00003b5c:    2011        .       MOVS     r0,#0x11
        0x00003b5e:    e000        ..      B        0x3b62 ; _printf_core + 1326
        0x00003b60:    4638        8F      MOV      r0,r7
        0x00003b62:    e9cd0100    ....    STRD     r0,r1,[sp,#0]
        0x00003b66:    a906        ..      ADD      r1,sp,#0x18
        0x00003b68:    a80e        ..      ADD      r0,sp,#0x38
        0x00003b6a:    f7fffca1    ....    BL       _fp_digits ; 0x34b0
        0x00003b6e:    e9dd010f    ....    LDRD     r0,r1,[sp,#0x3c]
        0x00003b72:    9a0e        ..      LDR      r2,[sp,#0x38]
        0x00003b74:    9103        ..      STR      r1,[sp,#0xc]
        0x00003b76:    2100        .!      MOVS     r1,#0
        0x00003b78:    9104        ..      STR      r1,[sp,#0x10]
        0x00003b7a:    9200        ..      STR      r2,[sp,#0]
        0x00003b7c:    46ba        .F      MOV      r10,r7
        0x00003b7e:    0721        !.      LSLS     r1,r4,#28
        0x00003b80:    d40c        ..      BMI      0x3b9c ; _printf_core + 1384
        0x00003b82:    9903        ..      LDR      r1,[sp,#0xc]
        0x00003b84:    4551        QE      CMP      r1,r10
        0x00003b86:    da00        ..      BGE      0x3b8a ; _printf_core + 1366
        0x00003b88:    468a        .F      MOV      r10,r1
        0x00003b8a:    f1ba0f01    ....    CMP      r10,#1
        0x00003b8e:    dd05        ..      BLE      0x3b9c ; _printf_core + 1384
        0x00003b90:    9a00        ..      LDR      r2,[sp,#0]
        0x00003b92:    f1aa0101    ....    SUB      r1,r10,#1
        0x00003b96:    5c51        Q\      LDRB     r1,[r2,r1]
        0x00003b98:    2930        0)      CMP      r1,#0x30
        0x00003b9a:    d008        ..      BEQ      0x3bae ; _printf_core + 1402
        0x00003b9c:    42b8        .B      CMP      r0,r7
        0x00003b9e:    da02        ..      BGE      0x3ba6 ; _printf_core + 1394
        0x00003ba0:    f1100f04    ....    CMN      r0,#4
        0x00003ba4:    da06        ..      BGE      0x3bb4 ; _printf_core + 1408
        0x00003ba6:    2101        .!      MOVS     r1,#1
        0x00003ba8:    e9cd1001    ....    STRD     r1,r0,[sp,#4]
        0x00003bac:    e015        ..      B        0x3bda ; _printf_core + 1446
        0x00003bae:    f1aa0101    ....    SUB      r1,r10,#1
        0x00003bb2:    e7e9        ..      B        0x3b88 ; _printf_core + 1364
        0x00003bb4:    2800        .(      CMP      r0,#0
        0x00003bb6:    dc05        ..      BGT      0x3bc4 ; _printf_core + 1424
        0x00003bb8:    9904        ..      LDR      r1,[sp,#0x10]
        0x00003bba:    4401        .D      ADD      r1,r1,r0
        0x00003bbc:    9104        ..      STR      r1,[sp,#0x10]
        0x00003bbe:    ebaa0100    ....    SUB      r1,r10,r0
        0x00003bc2:    e002        ..      B        0x3bca ; _printf_core + 1430
        0x00003bc4:    1c41        A.      ADDS     r1,r0,#1
        0x00003bc6:    4551        QE      CMP      r1,r10
        0x00003bc8:    dd00        ..      BLE      0x3bcc ; _printf_core + 1432
        0x00003bca:    468a        .F      MOV      r10,r1
        0x00003bcc:    9904        ..      LDR      r1,[sp,#0x10]
        0x00003bce:    1a40        @.      SUBS     r0,r0,r1
        0x00003bd0:    1c40        @.      ADDS     r0,r0,#1
        0x00003bd2:    9001        ..      STR      r0,[sp,#4]
        0x00003bd4:    f04f4000    O..@    MOV      r0,#0x80000000
        0x00003bd8:    9002        ..      STR      r0,[sp,#8]
        0x00003bda:    0720         .      LSLS     r0,r4,#28
        0x00003bdc:    d404        ..      BMI      0x3be8 ; _printf_core + 1460
        0x00003bde:    9801        ..      LDR      r0,[sp,#4]
        0x00003be0:    4550        PE      CMP      r0,r10
        0x00003be2:    db01        ..      BLT      0x3be8 ; _printf_core + 1460
        0x00003be4:    f8cd8004    ....    STR      r8,[sp,#4]
        0x00003be8:    2000        .       MOVS     r0,#0
        0x00003bea:    f88d004f    ..O.    STRB     r0,[sp,#0x4f]
        0x00003bee:    9802        ..      LDR      r0,[sp,#8]
        0x00003bf0:    f10d074f    ..O.    ADD      r7,sp,#0x4f
        0x00003bf4:    f1b04f00    ...O    CMP      r0,#0x80000000
        0x00003bf8:    d025        %.      BEQ      0x3c46 ; _printf_core + 1554
        0x00003bfa:    202b        +       MOVS     r0,#0x2b
        0x00003bfc:    900e        ..      STR      r0,[sp,#0x38]
        0x00003bfe:    9802        ..      LDR      r0,[sp,#8]
        0x00003c00:    f04f0802    O...    MOV      r8,#2
        0x00003c04:    2800        .(      CMP      r0,#0
        0x00003c06:    da0c        ..      BGE      0x3c22 ; _printf_core + 1518
        0x00003c08:    4240        @B      RSBS     r0,r0,#0
        0x00003c0a:    9002        ..      STR      r0,[sp,#8]
        0x00003c0c:    202d        -       MOVS     r0,#0x2d
        0x00003c0e:    900e        ..      STR      r0,[sp,#0x38]
        0x00003c10:    e007        ..      B        0x3c22 ; _printf_core + 1518
        0x00003c12:    210a        .!      MOVS     r1,#0xa
        0x00003c14:    9802        ..      LDR      r0,[sp,#8]
        0x00003c16:    f7fcfad3    ....    BL       __aeabi_uidiv ; 0x1c0
        0x00003c1a:    3130        01      ADDS     r1,r1,#0x30
        0x00003c1c:    9002        ..      STR      r0,[sp,#8]
        0x00003c1e:    f8071d01    ....    STRB     r1,[r7,#-1]!
        0x00003c22:    f1b80100    ....    SUBS     r1,r8,#0
        0x00003c26:    f1a80801    ....    SUB      r8,r8,#1
        0x00003c2a:    dcf2        ..      BGT      0x3c12 ; _printf_core + 1502
        0x00003c2c:    9802        ..      LDR      r0,[sp,#8]
        0x00003c2e:    2800        .(      CMP      r0,#0
        0x00003c30:    d1ef        ..      BNE      0x3c12 ; _printf_core + 1502
        0x00003c32:    1e79        y.      SUBS     r1,r7,#1
        0x00003c34:    980e        ..      LDR      r0,[sp,#0x38]
        0x00003c36:    7008        .p      STRB     r0,[r1,#0]
        0x00003c38:    7830        0x      LDRB     r0,[r6,#0]
        0x00003c3a:    f0000020    .. .    AND      r0,r0,#0x20
        0x00003c3e:    f0400045    @.E.    ORR      r0,r0,#0x45
        0x00003c42:    f8070d02    ....    STRB     r0,[r7,#-2]!
        0x00003c46:    a812        ..      ADD      r0,sp,#0x48
        0x00003c48:    1bc0        ..      SUBS     r0,r0,r7
        0x00003c4a:    f1000807    ....    ADD      r8,r0,#7
        0x00003c4e:    9814        ..      LDR      r0,[sp,#0x50]
        0x00003c50:    7800        .x      LDRB     r0,[r0,#0]
        0x00003c52:    b100        ..      CBZ      r0,0x3c56 ; _printf_core + 1570
        0x00003c54:    2001        .       MOVS     r0,#1
        0x00003c56:    eb00010a    ....    ADD      r1,r0,r10
        0x00003c5a:    9801        ..      LDR      r0,[sp,#4]
        0x00003c5c:    eb0171e0    ...q    ADD      r1,r1,r0,ASR #31
        0x00003c60:    9805        ..      LDR      r0,[sp,#0x14]
        0x00003c62:    4441        AD      ADD      r1,r1,r8
        0x00003c64:    1a40        @.      SUBS     r0,r0,r1
        0x00003c66:    1e40        @.      SUBS     r0,r0,#1
        0x00003c68:    9005        ..      STR      r0,[sp,#0x14]
        0x00003c6a:    03e0        ..      LSLS     r0,r4,#15
        0x00003c6c:    d406        ..      BMI      0x3c7c ; _printf_core + 1608
        0x00003c6e:    465b        [F      MOV      r3,r11
        0x00003c70:    4621        !F      MOV      r1,r4
        0x00003c72:    9a17        ..      LDR      r2,[sp,#0x5c]
        0x00003c74:    9805        ..      LDR      r0,[sp,#0x14]
        0x00003c76:    f000f85d    ..].    BL       _printf_pre_padding ; 0x3d34
        0x00003c7a:    4405        .D      ADD      r5,r5,r0
        0x00003c7c:    9814        ..      LDR      r0,[sp,#0x50]
        0x00003c7e:    7800        .x      LDRB     r0,[r0,#0]
        0x00003c80:    b118        ..      CBZ      r0,0x3c8a ; _printf_core + 1622
        0x00003c82:    465a        ZF      MOV      r2,r11
        0x00003c84:    9917        ..      LDR      r1,[sp,#0x5c]
        0x00003c86:    4790        .G      BLX      r2
        0x00003c88:    1c6d        m.      ADDS     r5,r5,#1
        0x00003c8a:    03e0        ..      LSLS     r0,r4,#15
        0x00003c8c:    d524        $.      BPL      0x3cd8 ; _printf_core + 1700
        0x00003c8e:    465b        [F      MOV      r3,r11
        0x00003c90:    4621        !F      MOV      r1,r4
        0x00003c92:    9a17        ..      LDR      r2,[sp,#0x5c]
        0x00003c94:    9805        ..      LDR      r0,[sp,#0x14]
        0x00003c96:    f000f84d    ..M.    BL       _printf_pre_padding ; 0x3d34
        0x00003c9a:    4405        .D      ADD      r5,r5,r0
        0x00003c9c:    e01c        ..      B        0x3cd8 ; _printf_core + 1700
        0x00003c9e:    9804        ..      LDR      r0,[sp,#0x10]
        0x00003ca0:    2800        .(      CMP      r0,#0
        0x00003ca2:    db07        ..      BLT      0x3cb4 ; _printf_core + 1664
        0x00003ca4:    e9dd0103    ....    LDRD     r0,r1,[sp,#0xc]
        0x00003ca8:    4288        .B      CMP      r0,r1
        0x00003caa:    dd03        ..      BLE      0x3cb4 ; _printf_core + 1664
        0x00003cac:    9800        ..      LDR      r0,[sp,#0]
        0x00003cae:    5c40        @\      LDRB     r0,[r0,r1]
        0x00003cb0:    9917        ..      LDR      r1,[sp,#0x5c]
        0x00003cb2:    e001        ..      B        0x3cb8 ; _printf_core + 1668
        0x00003cb4:    9917        ..      LDR      r1,[sp,#0x5c]
        0x00003cb6:    2030        0       MOVS     r0,#0x30
        0x00003cb8:    465a        ZF      MOV      r2,r11
        0x00003cba:    4790        .G      BLX      r2
        0x00003cbc:    9804        ..      LDR      r0,[sp,#0x10]
        0x00003cbe:    f1050501    ....    ADD      r5,r5,#1
        0x00003cc2:    1c40        @.      ADDS     r0,r0,#1
        0x00003cc4:    9004        ..      STR      r0,[sp,#0x10]
        0x00003cc6:    9801        ..      LDR      r0,[sp,#4]
        0x00003cc8:    1e40        @.      SUBS     r0,r0,#1
        0x00003cca:    9001        ..      STR      r0,[sp,#4]
        0x00003ccc:    d104        ..      BNE      0x3cd8 ; _printf_core + 1700
        0x00003cce:    202e        .       MOVS     r0,#0x2e
        0x00003cd0:    465a        ZF      MOV      r2,r11
        0x00003cd2:    9917        ..      LDR      r1,[sp,#0x5c]
        0x00003cd4:    4790        .G      BLX      r2
        0x00003cd6:    1c6d        m.      ADDS     r5,r5,#1
        0x00003cd8:    f1ba0100    ....    SUBS     r1,r10,#0
        0x00003cdc:    f1aa0a01    ....    SUB      r10,r10,#1
        0x00003ce0:    dcdd        ..      BGT      0x3c9e ; _printf_core + 1642
        0x00003ce2:    e005        ..      B        0x3cf0 ; _printf_core + 1724
        0x00003ce4:    f8170b01    ....    LDRB     r0,[r7],#1
        0x00003ce8:    465a        ZF      MOV      r2,r11
        0x00003cea:    9917        ..      LDR      r1,[sp,#0x5c]
        0x00003cec:    4790        .G      BLX      r2
        0x00003cee:    1c6d        m.      ADDS     r5,r5,#1
        0x00003cf0:    f1b80100    ....    SUBS     r1,r8,#0
        0x00003cf4:    f1a80801    ....    SUB      r8,r8,#1
        0x00003cf8:    dcf4        ..      BGT      0x3ce4 ; _printf_core + 1712
        0x00003cfa:    465b        [F      MOV      r3,r11
        0x00003cfc:    4621        !F      MOV      r1,r4
        0x00003cfe:    9a17        ..      LDR      r2,[sp,#0x5c]
        0x00003d00:    9805        ..      LDR      r0,[sp,#0x14]
        0x00003d02:    e6ab        ..      B        0x3a5c ; _printf_core + 1064
    $d
        0x00003d04:    0000002d    -...    DCD    45
        0x00003d08:    0000002b    +...    DCD    43
        0x00003d0c:    00000020     ...    DCD    32
    $t
    i._printf_post_padding
    _printf_post_padding
        0x00003d10:    e92d41f0    -..A    PUSH     {r4-r8,lr}
        0x00003d14:    4604        .F      MOV      r4,r0
        0x00003d16:    2500        .%      MOVS     r5,#0
        0x00003d18:    461e        .F      MOV      r6,r3
        0x00003d1a:    4617        .F      MOV      r7,r2
        0x00003d1c:    0488        ..      LSLS     r0,r1,#18
        0x00003d1e:    d404        ..      BMI      0x3d2a ; _printf_post_padding + 26
        0x00003d20:    e005        ..      B        0x3d2e ; _printf_post_padding + 30
        0x00003d22:    4639        9F      MOV      r1,r7
        0x00003d24:    2020                MOVS     r0,#0x20
        0x00003d26:    47b0        .G      BLX      r6
        0x00003d28:    1c6d        m.      ADDS     r5,r5,#1
        0x00003d2a:    1e64        d.      SUBS     r4,r4,#1
        0x00003d2c:    d5f9        ..      BPL      0x3d22 ; _printf_post_padding + 18
        0x00003d2e:    4628        (F      MOV      r0,r5
        0x00003d30:    e8bd81f0    ....    POP      {r4-r8,pc}
    i._printf_pre_padding
    _printf_pre_padding
        0x00003d34:    e92d41f0    -..A    PUSH     {r4-r8,lr}
        0x00003d38:    4604        .F      MOV      r4,r0
        0x00003d3a:    2500        .%      MOVS     r5,#0
        0x00003d3c:    461e        .F      MOV      r6,r3
        0x00003d3e:    4690        .F      MOV      r8,r2
        0x00003d40:    03c8        ..      LSLS     r0,r1,#15
        0x00003d42:    d501        ..      BPL      0x3d48 ; _printf_pre_padding + 20
        0x00003d44:    2730        0'      MOVS     r7,#0x30
        0x00003d46:    e000        ..      B        0x3d4a ; _printf_pre_padding + 22
        0x00003d48:    2720         '      MOVS     r7,#0x20
        0x00003d4a:    0488        ..      LSLS     r0,r1,#18
        0x00003d4c:    d504        ..      BPL      0x3d58 ; _printf_pre_padding + 36
        0x00003d4e:    e005        ..      B        0x3d5c ; _printf_pre_padding + 40
        0x00003d50:    4641        AF      MOV      r1,r8
        0x00003d52:    4638        8F      MOV      r0,r7
        0x00003d54:    47b0        .G      BLX      r6
        0x00003d56:    1c6d        m.      ADDS     r5,r5,#1
        0x00003d58:    1e64        d.      SUBS     r4,r4,#1
        0x00003d5a:    d5f9        ..      BPL      0x3d50 ; _printf_pre_padding + 28
        0x00003d5c:    4628        (F      MOV      r0,r5
        0x00003d5e:    e8bd81f0    ....    POP      {r4-r8,pc}
        0x00003d62:    0000        ..      MOVS     r0,r0
    $d.realdata
    .L__const.TIMER_GetModuleClock.au32Clk
        0x00003d64:    00f42400    .$..    DCD    16000000
        0x00003d68:    00008000    ....    DCD    32768
        0x00003d6c:    00000000    ....    DCD    0
        0x00003d70:    00000000    ....    DCD    0
        0x00003d74:    00000000    ....    DCD    0
        0x00003d78:    00002710    .'..    DCD    10000
        0x00003d7c:    00000000    ....    DCD    0
        0x00003d80:    01518000    ..Q.    DCD    22118400
    .L.str
    .L.str.4
        0x00003d84:    64726148    Hard    DCD    1685217608
        0x00003d88:    6c756146    Faul    DCD    1819631942
        0x00003d8c:    6e412074    t An    DCD    1849761908
        0x00003d90:    73796c61    alys    DCD    1937337441
        0x00003d94:    0a3a7369    is:.    DCD    171602793
        0x00003d98:    00          .       DCB    0
    .L.str.8
        0x00003d99:    5b30        [0      DCB    91,48
    .L.str.1
        0x00003d9b:    78          x       DCB    120
        0x00003d9c:    78383025    %08x    DCD    2016948261
        0x00003da0:    205d        ]       DCW    8285
        0x00003da2:    30          0       DCB    48
    .L.str.2
        0x00003da3:    78          x       DCB    120
        0x00003da4:    78343025    %04x    DCD    2016686117
        0x00003da8:    20732520     %s     DCD    544417056
        0x00003dac:    78257830    0x%x    DCD    2015721520
        0x00003db0:    78305b20     [0x    DCD    2016434976
        0x00003db4:    0a5d7825    %x].    DCD    173897765
        0x00003db8:    00          .       DCB    0
    .L.str.6
        0x00003db9:    457865      Exe     DCB    69,120,101
        0x00003dbc:    65747563    cute    DCD    1702131043
        0x00003dc0:    504b4220     BKP    DCD    1347109408
        0x00003dc4:    69772054    T wi    DCD    1769414740
        0x00003dc8:    756f6874    thou    DCD    1970235508
        0x00003dcc:    43492074    t IC    DCD    1128865908
        0x00003dd0:    6f632045    E co    DCD    1868767301
        0x00003dd4:    63656e6e    nnec    DCD    1667591790
        0x00003dd8:    0a646574    ted.    DCD    174351732
        0x00003ddc:    00          .       DCB    0
    .L.str.14
        0x00003ddd:    556e65      Une     DCB    85,110,101
        0x00003de0:    63657078    xpec    DCD    1667592312
        0x00003de4:    20646574    ted     DCD    543450484
        0x00003de8:    74736e69    inst    DCD    1953721961
        0x00003dec:    74637572    ruct    DCD    1952675186
        0x00003df0:    0a6e6f69    ion.    DCD    175009641
        0x00003df4:    00          .       DCB    0
    .L.str.5
        0x00003df5:    496e73      Ins     DCB    73,110,115
        0x00003df8:    63757274    truc    DCD    1668641396
        0x00003dfc:    6e6f6974    tion    DCD    1852795252
        0x00003e00:    646f6320     cod    DCD    1685021472
        0x00003e04:    203d2065    e =     DCD    540876901
        0x00003e08:    000a7825    %x..    DCD    686117
    .L.str.12
        0x00003e0c:    4852444c    LDRH    DCD    1213350988
        0x00003e10:    5254532f    /STR    DCD    1381258031
        0x00003e14:    74722048    H rt    DCD    1953636424
        0x00003e18:    2078253d    =%x     DCD    544744765
        0x00003e1c:    253d6e72    rn=%    DCD    624782962
        0x00003e20:    6d692078    x im    DCD    1835606136
        0x00003e24:    253d356d    m5=%    DCD    624768365
        0x00003e28:    0a78        x.      DCW    2680
        0x00003e2a:    00          .       DCB    0
    .L.str.11
        0x00003e2b:    4c          L       DCB    76
        0x00003e2c:    532f5244    DR/S    DCD    1395610180
        0x00003e30:    72205254    TR r    DCD    1914720852
        0x00003e34:    78253d74    t=%x    DCD    2015706484
        0x00003e38:    3d6e7220     rn=    DCD    1030648352
        0x00003e3c:    69207825    %x i    DCD    1763735589
        0x00003e40:    3d356d6d    mm5=    DCD    1026911597
        0x00003e44:    000a7825    %x..    DCD    686117
    .L.str.13
        0x00003e48:    4852444c    LDRH    DCD    1213350988
        0x00003e4c:    5254532f    /STR    DCD    1381258031
        0x00003e50:    74722048    H rt    DCD    1953636424
        0x00003e54:    2078253d    =%x     DCD    544744765
        0x00003e58:    386d6d69    imm8    DCD    946695529
        0x00003e5c:    0a78253d    =%x.    DCD    175646013
        0x00003e60:    00          .       DCB    0
    .L.str.7
        0x00003e61:    4c4452      LDR     DCB    76,68,82
        0x00003e64:    5254532f    /STR    DCD    1381258031
        0x00003e68:    3d747220     rt=    DCD    1031041568
        0x00003e6c:    72207825    %x r    DCD    1914730533
        0x00003e70:    78253d6d    m=%x    DCD    2015706477
        0x00003e74:    3d6e7220     rn=    DCD    1030648352
        0x00003e78:    000a7825    %x..    DCD    686117
    .L.str.3
        0x00003e7c:    64726148    Hard    DCD    1685217608
        0x00003e80:    6c756146    Faul    DCD    1819631942
        0x00003e84:    20402074    t @     DCD    541073524
        0x00003e88:    30257830    0x%0    DCD    807761968
        0x00003e8c:    000a7838    8x..    DCD    686136
        0x00003e90:    202a2a2a    ***     DCD    539634218
        0x00003e94:    65737361    asse    DCD    1702064993
        0x00003e98:    6f697472    rtio    DCD    1869182066
        0x00003e9c:    6166206e    n fa    DCD    1634082926
        0x00003ea0:    64656c69    iled    DCD    1684368489
        0x00003ea4:    2c00203a    : .,    DCD    738205754
        0x00003ea8:    6c696620     fil    DCD    1818846752
        0x00003eac:    2c002065    e .,    DCD    738205797
        0x00003eb0:    6e696c20     lin    DCD    1852402720
        0x00003eb4:    2065        e       DCW    8293
        0x00003eb6:    00          .       DCB    0
    .L.str.9
        0x00003eb7:    4c          L       DCB    76
        0x00003eb8:    5244        DR      DCW    21060
        0x00003eba:    00          .       DCB    0
    .L.str.10
        0x00003ebb:    53          S       DCB    83
        0x00003ebc:    00005254    TR..    DCD    21076
    Region$$Table$$Base
        0x00003ec0:    00003ee0    .>..    DCD    16096
        0x00003ec4:    20000000    ...     DCD    536870912
        0x00003ec8:    00000078    x...    DCD    120
        0x00003ecc:    00003490    .4..    DCD    13456
        0x00003ed0:    00003f58    X?..    DCD    16216
        0x00003ed4:    20000078    x..     DCD    536871032
        0x00003ed8:    00000ab0    ....    DCD    2736
        0x00003edc:    000034a0    .4..    DCD    13472
    Region$$Table$$Limit

** Section #2 'ER_RW' (SHT_PROGBITS) [SHF_ALLOC + SHF_WRITE]
    Size   : 120 bytes (alignment 4)
    Address: 0x20000000


** Section #3 'ER_ZI' (SHT_NOBITS) [SHF_ALLOC + SHF_WRITE]
    Size   : 2736 bytes (alignment 8)
    Address: 0x20000078


** Section #4 '.debug_abbrev' (SHT_PROGBITS)
    Size   : 3235 bytes


** Section #5 '.debug_frame' (SHT_PROGBITS)
    Size   : 3980 bytes


** Section #6 '.debug_info' (SHT_PROGBITS)
    Size   : 17264 bytes


** Section #7 '.debug_line' (SHT_PROGBITS)
    Size   : 15098 bytes


** Section #8 '.debug_ranges' (SHT_PROGBITS)
    Size   : 1104 bytes


** Section #9 '.debug_str' (SHT_PROGBITS)
    Size   : 12183 bytes


** Section #10 '.symtab' (SHT_SYMTAB)
    Size   : 5296 bytes (alignment 4)
    String table #11 '.strtab'
    Last local symbol no. 142


** Section #11 '.strtab' (SHT_STRTAB)
    Size   : 4436 bytes


** Section #12 '.note' (SHT_NOTE)
    Size   : 28 bytes (alignment 4)


** Section #13 '.comment' (SHT_PROGBITS)
    Size   : 1592 bytes


** Section #14 '.shstrtab' (SHT_STRTAB)
    Size   : 136 bytes


